Certificate:
    Data:
        Version: 3 (0x2)
        Serial Number: 4097 (0x1001)
    Signature Algorithm: sha1WithRSAEncryption
        Issuer: C=FR, ST=IDF, L=Paris, O=Fake CA for Test, CN=NodeOPCUA
        Validity
            Not Before: Jul  2 12:02:41 2015 GMT
            Not After : Jul  1 12:02:41 2016 GMT
        Subject: O=NodeOPCUA, CN=urn:ehome09:NodeOPCUA-Client
        Subject Public Key Info:
            Public Key Algorithm: rsaEncryption
                Public-Key: (2048 bit)
                Modulus:
                    00:bc:51:37:30:76:ac:2e:ae:21:4e:32:53:be:92:
                    61:56:94:28:ce:30:13:05:bf:bc:da:b0:c7:23:a0:
                    c0:55:7f:e2:c0:91:04:44:d7:16:a3:c2:5d:e5:5d:
                    d7:e0:65:84:ea:28:2c:43:fd:13:a0:28:f1:12:ed:
                    0d:04:68:71:1b:46:bd:ac:97:a8:42:70:21:d3:b8:
                    00:73:32:38:13:0a:07:4b:dd:0e:bb:0c:fd:4d:28:
                    2f:55:4b:35:ba:6a:0e:ae:c9:ca:ed:c5:43:5f:99:
                    26:60:ab:3e:99:6d:9a:44:c1:bd:78:3f:37:a1:4d:
                    da:f0:7e:33:7f:f1:93:6a:7e:29:7c:20:55:34:fb:
                    5a:c3:78:7f:dc:fc:fc:fd:ec:f9:8d:86:c1:a2:ad:
                    78:56:22:4e:69:5c:ff:07:c1:cb:46:51:9a:7d:71:
                    f4:30:fa:ca:e5:30:8e:e1:4c:e2:93:7c:63:14:b0:
                    b4:83:cf:5f:cd:6c:e0:aa:8e:40:5a:ad:3c:16:48:
                    0b:1e:9b:ab:90:1e:b3:f8:7b:a4:53:21:d1:86:a3:
                    e9:09:c3:5e:38:2c:c7:4c:37:24:fa:be:b3:13:44:
                    57:b2:9c:c9:27:8e:b7:eb:f4:19:11:a5:6f:ad:2e:
                    4c:13:f0:5c:a4:70:4f:ea:23:db:46:79:54:b7:87:
                    ac:b5
                Exponent: 65537 (0x10001)
        X509v3 extensions:
            X509v3 Basic Constraints: critical
                CA:FALSE
            X509v3 Subject Key Identifier: 
                9F:3F:3F:4E:73:97:1B:90:0E:38:E1:AD:63:03:7A:38:9B:D1:1F:6D
            X509v3 Authority Key Identifier: 
                keyid:D9:88:38:C9:0D:CC:5C:1E:7E:EF:E4:6D:2C:C0:37:B2:14:4E:61:C8
                DirName:/C=FR/ST=IDF/L=Paris/O=Fake CA for Test/CN=NodeOPCUA
                serial:90:D2:7C:E2:A0:55:3C:E7

            X509v3 Subject Alternative Name: 
                URI:urn:ehome09:NodeOPCUA-Client, DNS:localhost, DNS:ehome09
            Netscape Comment: 
                OpenSSL Generated Certificate
            X509v3 Key Usage: critical
                Digital Signature, Non Repudiation, Key Encipherment, Data Encipherment, Key Agreement, Certificate Sign
            X509v3 Extended Key Usage: critical
                TLS Web Server Authentication, TLS Web Client Authentication
    Signature Algorithm: sha1WithRSAEncryption
         ce:45:ee:fc:25:54:d5:43:fa:29:20:5d:ae:e1:f2:f5:09:fa:
         65:1d:d8:46:39:1c:72:7c:7f:33:4e:08:30:84:c9:50:a9:9a:
         fb:cc:fa:2c:ac:ec:e4:78:8c:8b:9c:4c:4e:41:ec:4c:c0:77:
         e9:b8:55:96:77:0b:e7:52:66:f7:37:09:d3:26:36:dc:d1:e9:
         58:a4:3d:62:ad:f5:b2:fd:35:db:24:37:2a:85:b3:0e:09:69:
         56:6f:41:a1:62:f0:a8:66:b2:4b:89:89:91:16:6b:72:07:77:
         66:dc:66:f8:ca:11:a6:5b:59:a7:fe:56:01:7e:e4:9f:7f:d4:
         3e:6b:46:2c:74:b2:1a:df:4e:7d:aa:dd:81:4a:94:aa:8e:86:
         2e:a9:8c:2e:92:48:b0:a6:d5:32:13:28:f0:2f:1a:1c:83:a8:
         0a:3e:2d:2f:ec:bc:57:d3:b7:94:6a:8f:66:30:4a:1b:da:57:
         cf:54:7a:f0:3a:f4:83:cc:d2:2c:19:20:2d:95:9e:b6:e8:b3:
         2f:4c:b4:70:80:be:00:ec:77:d9:aa:5f:61:2a:79:7e:f7:74:
         b6:30:83:a2:2c:46:3f:83:47:19:b1:ab:1a:35:fb:74:b5:ff:
         5a:ca:d7:71:61:88:62:23:f0:a9:4d:65:cf:93:24:0f:03:fd:
         3d:ff:12:b5
-----BEGIN CERTIFICATE-----
MIIEcDCCA1igAwIBAgICEAEwDQYJKoZIhvcNAQEFBQAwWjELMAkGA1UEBhMCRlIx
DDAKBgNVBAgTA0lERjEOMAwGA1UEBxMFUGFyaXMxGTAXBgNVBAoTEEZha2UgQ0Eg
Zm9yIFRlc3QxEjAQBgNVBAMTCU5vZGVPUENVQTAeFw0xNTA3MDIxMjAyNDFaFw0x
NjA3MDExMjAyNDFaMDsxEjAQBgNVBAoTCU5vZGVPUENVQTElMCMGA1UEAxMcdXJu
OmVob21lMDk6Tm9kZU9QQ1VBLUNsaWVudDCCASIwDQYJKoZIhvcNAQEBBQADggEP
ADCCAQoCggEBALxRNzB2rC6uIU4yU76SYVaUKM4wEwW/vNqwxyOgwFV/4sCRBETX
FqPCXeVd1+BlhOooLEP9E6Ao8RLtDQRocRtGvayXqEJwIdO4AHMyOBMKB0vdDrsM
/U0oL1VLNbpqDq7Jyu3FQ1+ZJmCrPpltmkTBvXg/N6FN2vB+M3/xk2p+KXwgVTT7
WsN4f9z8/P3s+Y2GwaKteFYiTmlc/wfBy0ZRmn1x9DD6yuUwjuFM4pN8YxSwtIPP
X81s4KqOQFqtPBZICx6bq5Aes/h7pFMh0Yaj6QnDXjgsx0w3JPq+sxNEV7KcySeO
t+v0GRGlb60uTBPwXKRwT+oj20Z5VLeHrLUCAwEAAaOCAV0wggFZMAwGA1UdEwEB
/wQCMAAwHQYDVR0OBBYEFJ8/P05zlxuQDjjhrWMDejib0R9tMIGMBgNVHSMEgYQw
gYGAFNmIOMkNzFwefu/kbSzAN7IUTmHIoV6kXDBaMQswCQYDVQQGEwJGUjEMMAoG
A1UECBMDSURGMQ4wDAYDVQQHEwVQYXJpczEZMBcGA1UEChMQRmFrZSBDQSBmb3Ig
VGVzdDESMBAGA1UEAxMJTm9kZU9QQ1VBggkAkNJ84qBVPOcwOwYDVR0RBDQwMoYc
dXJuOmVob21lMDk6Tm9kZU9QQ1VBLUNsaWVudIIJbG9jYWxob3N0ggdlaG9tZTA5
MCwGCWCGSAGG+EIBDQQfFh1PcGVuU1NMIEdlbmVyYXRlZCBDZXJ0aWZpY2F0ZTAO
BgNVHQ8BAf8EBAMCAvwwIAYDVR0lAQH/BBYwFAYIKwYBBQUHAwEGCCsGAQUFBwMC
MA0GCSqGSIb3DQEBBQUAA4IBAQDORe78JVTVQ/opIF2u4fL1CfplHdhGORxyfH8z
TggwhMlQqZr7zPosrOzkeIyLnExOQexMwHfpuFWWdwvnUmb3NwnTJjbc0elYpD1i
rfWy/TXbJDcqhbMOCWlWb0GhYvCoZrJLiYmRFmtyB3dm3Gb4yhGmW1mn/lYBfuSf
f9Q+a0YsdLIa3059qt2BSpSqjoYuqYwukkiwptUyEyjwLxocg6gKPi0v7LxX07eU
ao9mMEob2lfPVHrwOvSDzNIsGSAtlZ626LMvTLRwgL4A7HfZql9hKnl+93S2MIOi
LEY/g0cZsasaNft0tf9aytdxYYhiI/CpTWXPkyQPA/09/xK1
-----END CERTIFICATE-----
