Certificate:
    Data:
        Version: 3 (0x2)
        Serial Number: 4100 (0x1004)
    Signature Algorithm: sha1WithRSAEncryption
        Issuer: C=FR, ST=IDF, L=Paris, O=Fake CA for Test, CN=NodeOPCUA
        Validity
            Not Before: Jul  2 12:02:41 2015 GMT
            Not After : Jul  1 12:02:41 2016 GMT
        Subject: O=NodeOPCUA, CN=urn:ehome09:NodeOPCUA-Server
        Subject Public Key Info:
            Public Key Algorithm: rsaEncryption
                Public-Key: (1024 bit)
                Modulus:
                    00:db:36:f0:03:27:83:08:7c:13:3c:88:31:01:7b:
                    5f:f4:12:26:10:2d:4b:fc:7c:ee:22:08:17:ef:c1:
                    09:5c:a2:22:77:e4:9f:c5:f3:f2:cd:7c:f1:22:21:
                    c8:60:43:2b:8e:f1:b8:f2:49:45:96:6b:94:7f:8f:
                    91:6a:2f:0f:1d:73:91:57:fa:2a:b1:0a:30:d0:04:
                    f9:67:73:bd:e0:13:9c:b4:2e:2b:1f:a4:4e:c3:63:
                    d4:8a:23:79:23:53:c1:d7:27:17:0f:5f:7a:c7:db:
                    74:7a:4e:da:1b:c0:6c:61:f5:50:b5:b1:8b:2c:69:
                    b8:34:b8:2b:6a:9e:62:06:0b
                Exponent: 65537 (0x10001)
        X509v3 extensions:
            X509v3 Basic Constraints: critical
                CA:FALSE
            X509v3 Subject Key Identifier: 
                7A:D0:53:94:E4:D7:00:E8:04:0C:37:CA:83:0A:5E:68:DE:AA:E4:98
            X509v3 Authority Key Identifier: 
                keyid:D9:88:38:C9:0D:CC:5C:1E:7E:EF:E4:6D:2C:C0:37:B2:14:4E:61:C8
                DirName:/C=FR/ST=IDF/L=Paris/O=Fake CA for Test/CN=NodeOPCUA
                serial:90:D2:7C:E2:A0:55:3C:E7

            X509v3 Subject Alternative Name: 
                URI:urn:ehome09:NodeOPCUA-Server, DNS:localhost, DNS:ehome09
            Netscape Comment: 
                OpenSSL Generated Certificate
            X509v3 Key Usage: critical
                Digital Signature, Non Repudiation, Key Encipherment, Data Encipherment, Key Agreement, Certificate Sign
            X509v3 Extended Key Usage: critical
                TLS Web Server Authentication, TLS Web Client Authentication
    Signature Algorithm: sha1WithRSAEncryption
         a6:b6:26:4b:8b:0a:da:8f:0a:05:e1:f8:83:00:fd:ad:0c:cf:
         3e:0a:7d:54:7e:78:6a:92:13:74:ef:0f:1a:41:a2:fc:91:b7:
         2d:68:26:ee:ef:1c:03:8f:59:12:fa:12:1e:fb:af:0c:2e:bd:
         4a:f6:cd:59:25:3f:e6:88:12:6e:e0:9e:01:db:8a:54:ef:2f:
         7d:4c:30:9e:2a:39:f6:68:09:2b:ef:60:4f:24:7e:e1:8b:ce:
         c7:ed:e2:1a:68:48:f9:92:f9:25:73:c7:bf:64:1a:95:27:12:
         89:ad:dd:8b:c5:5c:93:38:fc:52:bc:5c:2b:99:0b:f8:24:b6:
         73:b7:54:5f:3b:28:ae:9f:6f:d6:96:ab:12:2f:62:09:8a:1c:
         ec:a4:0c:0c:1d:0a:84:3f:6a:2e:cb:0a:6e:ee:38:54:8f:79:
         5d:04:a4:b6:46:4f:78:62:16:65:0b:98:a9:ef:ad:5f:5a:27:
         d7:29:95:70:e4:f7:c2:18:98:7d:7a:e8:98:5d:38:35:85:b2:
         75:ce:e6:0b:7f:32:d9:98:a8:04:0b:67:a7:9f:21:21:00:e7:
         9b:b2:ca:3c:ec:06:b7:fe:2b:1c:f1:fe:ef:d9:c0:2e:73:2b:
         3f:e7:f7:66:9f:4a:4a:de:6e:0e:78:53:e6:c7:61:bc:66:84:
         11:49:6e:fc
-----BEGIN CERTIFICATE-----
MIID7DCCAtSgAwIBAgICEAQwDQYJKoZIhvcNAQEFBQAwWjELMAkGA1UEBhMCRlIx
DDAKBgNVBAgTA0lERjEOMAwGA1UEBxMFUGFyaXMxGTAXBgNVBAoTEEZha2UgQ0Eg
Zm9yIFRlc3QxEjAQBgNVBAMTCU5vZGVPUENVQTAeFw0xNTA3MDIxMjAyNDFaFw0x
NjA3MDExMjAyNDFaMDsxEjAQBgNVBAoTCU5vZGVPUENVQTElMCMGA1UEAxMcdXJu
OmVob21lMDk6Tm9kZU9QQ1VBLVNlcnZlcjCBnzANBgkqhkiG9w0BAQEFAAOBjQAw
gYkCgYEA2zbwAyeDCHwTPIgxAXtf9BImEC1L/HzuIggX78EJXKIid+SfxfPyzXzx
IiHIYEMrjvG48klFlmuUf4+Rai8PHXORV/oqsQow0AT5Z3O94BOctC4rH6ROw2PU
iiN5I1PB1ycXD196x9t0ek7aG8BsYfVQtbGLLGm4NLgrap5iBgsCAwEAAaOCAV0w
ggFZMAwGA1UdEwEB/wQCMAAwHQYDVR0OBBYEFHrQU5Tk1wDoBAw3yoMKXmjequSY
MIGMBgNVHSMEgYQwgYGAFNmIOMkNzFwefu/kbSzAN7IUTmHIoV6kXDBaMQswCQYD
VQQGEwJGUjEMMAoGA1UECBMDSURGMQ4wDAYDVQQHEwVQYXJpczEZMBcGA1UEChMQ
RmFrZSBDQSBmb3IgVGVzdDESMBAGA1UEAxMJTm9kZU9QQ1VBggkAkNJ84qBVPOcw
OwYDVR0RBDQwMoYcdXJuOmVob21lMDk6Tm9kZU9QQ1VBLVNlcnZlcoIJbG9jYWxo
b3N0ggdlaG9tZTA5MCwGCWCGSAGG+EIBDQQfFh1PcGVuU1NMIEdlbmVyYXRlZCBD
ZXJ0aWZpY2F0ZTAOBgNVHQ8BAf8EBAMCAvwwIAYDVR0lAQH/BBYwFAYIKwYBBQUH
AwEGCCsGAQUFBwMCMA0GCSqGSIb3DQEBBQUAA4IBAQCmtiZLiwrajwoF4fiDAP2t
DM8+Cn1UfnhqkhN07w8aQaL8kbctaCbu7xwDj1kS+hIe+68MLr1K9s1ZJT/miBJu
4J4B24pU7y99TDCeKjn2aAkr72BPJH7hi87H7eIaaEj5kvklc8e/ZBqVJxKJrd2L
xVyTOPxSvFwrmQv4JLZzt1RfOyiun2/WlqsSL2IJihzspAwMHQqEP2ouywpu7jhU
j3ldBKS2Rk94YhZlC5ip761fWifXKZVw5PfCGJh9euiYXTg1hbJ1zuYLfzLZmKgE
C2ennyEhAOebsso87Aa3/isc8f7v2cAucys/5/dmn0pK3m4OeFPmx2G8ZoQRSW78
-----END CERTIFICATE-----
