Certificate:
    Data:
        Version: 3 (0x2)
        Serial Number: 4102 (0x1006)
    Signature Algorithm: sha1WithRSAEncryption
        Issuer: O=NodeOPCUA, CN=urn:ehome09:NodeOPCUA-Server
        Validity
            Not Before: Jul  2 12:02:41 2015 GMT
            Not After : Jul  1 12:02:41 2016 GMT
        Subject: O=NodeOPCUA, CN=urn:ehome09:NodeOPCUA-Server
        Subject Public Key Info:
            Public Key Algorithm: rsaEncryption
                Public-Key: (1024 bit)
                Modulus:
                    00:db:36:f0:03:27:83:08:7c:13:3c:88:31:01:7b:
                    5f:f4:12:26:10:2d:4b:fc:7c:ee:22:08:17:ef:c1:
                    09:5c:a2:22:77:e4:9f:c5:f3:f2:cd:7c:f1:22:21:
                    c8:60:43:2b:8e:f1:b8:f2:49:45:96:6b:94:7f:8f:
                    91:6a:2f:0f:1d:73:91:57:fa:2a:b1:0a:30:d0:04:
                    f9:67:73:bd:e0:13:9c:b4:2e:2b:1f:a4:4e:c3:63:
                    d4:8a:23:79:23:53:c1:d7:27:17:0f:5f:7a:c7:db:
                    74:7a:4e:da:1b:c0:6c:61:f5:50:b5:b1:8b:2c:69:
                    b8:34:b8:2b:6a:9e:62:06:0b
                Exponent: 65537 (0x10001)
        X509v3 extensions:
            X509v3 Basic Constraints: critical
                CA:FALSE
            X509v3 Subject Key Identifier: 
                7A:D0:53:94:E4:D7:00:E8:04:0C:37:CA:83:0A:5E:68:DE:AA:E4:98
            X509v3 Authority Key Identifier: 
                keyid:7A:D0:53:94:E4:D7:00:E8:04:0C:37:CA:83:0A:5E:68:DE:AA:E4:98
                DirName:/O=NodeOPCUA/CN=urn:ehome09:NodeOPCUA-Server
                serial:10:06

            X509v3 Subject Alternative Name: 
                URI:urn:ehome09:NodeOPCUA-Server, DNS:localhost, DNS:ehome09
            Netscape Comment: 
                OpenSSL Generated Certificate
            X509v3 Key Usage: critical
                Digital Signature, Non Repudiation, Key Encipherment, Data Encipherment, Key Agreement, Certificate Sign
            X509v3 Extended Key Usage: critical
                TLS Web Server Authentication, TLS Web Client Authentication
    Signature Algorithm: sha1WithRSAEncryption
         a6:8f:aa:c6:50:9e:e0:94:94:6f:e5:9f:5d:5c:fe:1b:c8:cf:
         ec:b3:e7:57:44:7b:19:6b:14:12:f0:1e:a3:d3:46:ed:50:84:
         a3:2c:d4:29:09:93:48:86:82:86:0a:ce:45:e1:be:1d:8a:01:
         8e:98:17:7c:c4:47:f4:cf:5c:e1:5e:83:56:34:0b:75:ea:2b:
         aa:3c:f1:a6:21:11:61:8d:fb:33:a9:01:a3:fc:9e:d2:d5:3f:
         3c:50:09:0f:f9:9d:9f:9a:f0:2b:92:75:9e:36:fc:40:ff:c0:
         55:1a:81:0f:83:25:b9:91:ac:15:6c:5e:26:42:7d:87:b4:87:
         e4:b5
-----BEGIN CERTIFICATE-----
MIIDIzCCAoygAwIBAgICEAYwDQYJKoZIhvcNAQEFBQAwOzESMBAGA1UEChMJTm9k
ZU9QQ1VBMSUwIwYDVQQDExx1cm46ZWhvbWUwOTpOb2RlT1BDVUEtU2VydmVyMB4X
DTE1MDcwMjEyMDI0MVoXDTE2MDcwMTEyMDI0MVowOzESMBAGA1UEChMJTm9kZU9Q
Q1VBMSUwIwYDVQQDExx1cm46ZWhvbWUwOTpOb2RlT1BDVUEtU2VydmVyMIGfMA0G
CSqGSIb3DQEBAQUAA4GNADCBiQKBgQDbNvADJ4MIfBM8iDEBe1/0EiYQLUv8fO4i
CBfvwQlcoiJ35J/F8/LNfPEiIchgQyuO8bjySUWWa5R/j5FqLw8dc5FX+iqxCjDQ
BPlnc73gE5y0LisfpE7DY9SKI3kjU8HXJxcPX3rH23R6TtobwGxh9VC1sYssabg0
uCtqnmIGCwIDAQABo4IBNDCCATAwDAYDVR0TAQH/BAIwADAdBgNVHQ4EFgQUetBT
lOTXAOgEDDfKgwpeaN6q5JgwZAYDVR0jBF0wW4AUetBTlOTXAOgEDDfKgwpeaN6q
5JihP6Q9MDsxEjAQBgNVBAoTCU5vZGVPUENVQTElMCMGA1UEAxMcdXJuOmVob21l
MDk6Tm9kZU9QQ1VBLVNlcnZlcoICEAYwOwYDVR0RBDQwMoYcdXJuOmVob21lMDk6
Tm9kZU9QQ1VBLVNlcnZlcoIJbG9jYWxob3N0ggdlaG9tZTA5MCwGCWCGSAGG+EIB
DQQfFh1PcGVuU1NMIEdlbmVyYXRlZCBDZXJ0aWZpY2F0ZTAOBgNVHQ8BAf8EBAMC
AvwwIAYDVR0lAQH/BBYwFAYIKwYBBQUHAwEGCCsGAQUFBwMCMA0GCSqGSIb3DQEB
BQUAA4GBAKaPqsZQnuCUlG/ln11c/hvIz+yz51dEexlrFBLwHqPTRu1QhKMs1CkJ
k0iGgoYKzkXhvh2KAY6YF3zER/TPXOFeg1Y0C3XqK6o88aYhEWGN+zOpAaP8ntLV
PzxQCQ/5nZ+a8CuSdZ42/ED/wFUagQ+DJbmRrBVsXiZCfYe0h+S1
-----END CERTIFICATE-----
