Certificate:
    Data:
        Version: 3 (0x2)
        Serial Number: 4099 (0x1003)
    Signature Algorithm: sha1WithRSAEncryption
        Issuer: O=NodeOPCUA, CN=urn:ehome09:NodeOPCUA-Client
        Validity
            Not Before: Jul  2 12:02:41 2015 GMT
            Not After : Jul  1 12:02:41 2016 GMT
        Subject: O=NodeOPCUA, CN=urn:ehome09:NodeOPCUA-Client
        Subject Public Key Info:
            Public Key Algorithm: rsaEncryption
                Public-Key: (2048 bit)
                Modulus:
                    00:bc:51:37:30:76:ac:2e:ae:21:4e:32:53:be:92:
                    61:56:94:28:ce:30:13:05:bf:bc:da:b0:c7:23:a0:
                    c0:55:7f:e2:c0:91:04:44:d7:16:a3:c2:5d:e5:5d:
                    d7:e0:65:84:ea:28:2c:43:fd:13:a0:28:f1:12:ed:
                    0d:04:68:71:1b:46:bd:ac:97:a8:42:70:21:d3:b8:
                    00:73:32:38:13:0a:07:4b:dd:0e:bb:0c:fd:4d:28:
                    2f:55:4b:35:ba:6a:0e:ae:c9:ca:ed:c5:43:5f:99:
                    26:60:ab:3e:99:6d:9a:44:c1:bd:78:3f:37:a1:4d:
                    da:f0:7e:33:7f:f1:93:6a:7e:29:7c:20:55:34:fb:
                    5a:c3:78:7f:dc:fc:fc:fd:ec:f9:8d:86:c1:a2:ad:
                    78:56:22:4e:69:5c:ff:07:c1:cb:46:51:9a:7d:71:
                    f4:30:fa:ca:e5:30:8e:e1:4c:e2:93:7c:63:14:b0:
                    b4:83:cf:5f:cd:6c:e0:aa:8e:40:5a:ad:3c:16:48:
                    0b:1e:9b:ab:90:1e:b3:f8:7b:a4:53:21:d1:86:a3:
                    e9:09:c3:5e:38:2c:c7:4c:37:24:fa:be:b3:13:44:
                    57:b2:9c:c9:27:8e:b7:eb:f4:19:11:a5:6f:ad:2e:
                    4c:13:f0:5c:a4:70:4f:ea:23:db:46:79:54:b7:87:
                    ac:b5
                Exponent: 65537 (0x10001)
        X509v3 extensions:
            X509v3 Basic Constraints: critical
                CA:FALSE
            X509v3 Subject Key Identifier: 
                9F:3F:3F:4E:73:97:1B:90:0E:38:E1:AD:63:03:7A:38:9B:D1:1F:6D
            X509v3 Authority Key Identifier: 
                keyid:9F:3F:3F:4E:73:97:1B:90:0E:38:E1:AD:63:03:7A:38:9B:D1:1F:6D
                DirName:/O=NodeOPCUA/CN=urn:ehome09:NodeOPCUA-Client
                serial:10:03

            X509v3 Subject Alternative Name: 
                URI:urn:ehome09:NodeOPCUA-Client, DNS:localhost, DNS:ehome09
            Netscape Comment: 
                OpenSSL Generated Certificate
            X509v3 Key Usage: critical
                Digital Signature, Non Repudiation, Key Encipherment, Data Encipherment, Key Agreement, Certificate Sign
            X509v3 Extended Key Usage: critical
                TLS Web Server Authentication, TLS Web Client Authentication
    Signature Algorithm: sha1WithRSAEncryption
         ae:e5:a8:74:94:6c:76:c7:57:1a:59:a2:87:b6:15:3d:3c:6e:
         90:58:38:c8:0d:37:ab:c8:1c:10:50:e2:9b:d2:c5:1d:3c:6f:
         10:b4:99:34:f6:06:ba:ca:04:35:ed:f5:99:22:60:92:a6:69:
         30:f3:4a:11:40:4a:90:83:c5:2a:78:70:0d:3f:1a:67:1d:59:
         c0:ca:e6:e3:78:78:85:eb:5c:29:e3:9a:c7:4b:26:cc:3d:4b:
         48:71:02:63:1f:4e:d8:30:d3:98:86:c8:d3:cf:3a:c3:43:e2:
         b9:65:79:78:f4:8a:f7:5c:5c:1c:be:22:57:a9:5a:35:fd:25:
         8c:fc:3b:f7:e2:74:3e:1f:4d:05:b0:94:d5:8e:69:e1:19:66:
         6f:c4:4a:e1:7c:8a:1b:68:f3:24:2a:fa:39:26:d9:e0:13:19:
         c9:be:e9:5c:bd:b4:b3:7b:13:bf:b9:1e:93:4b:92:90:e3:f8:
         ca:86:5c:0e:fa:18:73:b6:5d:69:76:58:76:a9:02:7e:f8:92:
         df:06:e2:55:95:f3:45:b4:4c:5e:aa:78:4d:08:61:9d:88:ac:
         6b:d9:3b:e9:a3:c0:3f:3f:8a:13:99:ef:5b:00:51:4f:e8:e7:
         5f:2b:11:a7:88:01:d8:e6:ff:e5:53:53:f8:94:dc:04:67:2c:
         61:0d:a5:2b
-----BEGIN CERTIFICATE-----
MIIEKDCCAxCgAwIBAgICEAMwDQYJKoZIhvcNAQEFBQAwOzESMBAGA1UEChMJTm9k
ZU9QQ1VBMSUwIwYDVQQDExx1cm46ZWhvbWUwOTpOb2RlT1BDVUEtQ2xpZW50MB4X
DTE1MDcwMjEyMDI0MVoXDTE2MDcwMTEyMDI0MVowOzESMBAGA1UEChMJTm9kZU9Q
Q1VBMSUwIwYDVQQDExx1cm46ZWhvbWUwOTpOb2RlT1BDVUEtQ2xpZW50MIIBIjAN
BgkqhkiG9w0BAQEFAAOCAQ8AMIIBCgKCAQEAvFE3MHasLq4hTjJTvpJhVpQozjAT
Bb+82rDHI6DAVX/iwJEERNcWo8Jd5V3X4GWE6igsQ/0ToCjxEu0NBGhxG0a9rJeo
QnAh07gAczI4EwoHS90Ouwz9TSgvVUs1umoOrsnK7cVDX5kmYKs+mW2aRMG9eD83
oU3a8H4zf/GTan4pfCBVNPtaw3h/3Pz8/ez5jYbBoq14ViJOaVz/B8HLRlGafXH0
MPrK5TCO4Uzik3xjFLC0g89fzWzgqo5AWq08FkgLHpurkB6z+HukUyHRhqPpCcNe
OCzHTDck+r6zE0RXspzJJ4636/QZEaVvrS5ME/BcpHBP6iPbRnlUt4estQIDAQAB
o4IBNDCCATAwDAYDVR0TAQH/BAIwADAdBgNVHQ4EFgQUnz8/TnOXG5AOOOGtYwN6
OJvRH20wZAYDVR0jBF0wW4AUnz8/TnOXG5AOOOGtYwN6OJvRH22hP6Q9MDsxEjAQ
BgNVBAoTCU5vZGVPUENVQTElMCMGA1UEAxMcdXJuOmVob21lMDk6Tm9kZU9QQ1VB
LUNsaWVudIICEAMwOwYDVR0RBDQwMoYcdXJuOmVob21lMDk6Tm9kZU9QQ1VBLUNs
aWVudIIJbG9jYWxob3N0ggdlaG9tZTA5MCwGCWCGSAGG+EIBDQQfFh1PcGVuU1NM
IEdlbmVyYXRlZCBDZXJ0aWZpY2F0ZTAOBgNVHQ8BAf8EBAMCAvwwIAYDVR0lAQH/
BBYwFAYIKwYBBQUHAwEGCCsGAQUFBwMCMA0GCSqGSIb3DQEBBQUAA4IBAQCu5ah0
lGx2x1caWaKHthU9PG6QWDjIDTeryBwQUOKb0sUdPG8QtJk09ga6ygQ17fWZImCS
pmkw80oRQEqQg8UqeHANPxpnHVnAyubjeHiF61wp45rHSybMPUtIcQJjH07YMNOY
hsjTzzrDQ+K5ZXl49Ir3XFwcviJXqVo1/SWM/Dv34nQ+H00FsJTVjmnhGWZvxErh
fIobaPMkKvo5JtngExnJvulcvbSzexO/uR6TS5KQ4/jKhlwO+hhztl1pdlh2qQJ+
+JLfBuJVlfNFtExeqnhNCGGdiKxr2Tvpo8A/P4oTme9bAFFP6OdfKxGniAHY5v/l
U1P4lNwEZyxhDaUr
-----END CERTIFICATE-----
