Certificate:
    Data:
        Version: 3 (0x2)
        Serial Number: 4098 (0x1002)
    Signature Algorithm: sha1WithRSAEncryption
        Issuer: O=NodeOPCUA, CN=urn:ehome09:NodeOPCUA-Client
        Validity
            Not Before: Jul  2 12:02:41 2015 GMT
            Not After : Jul  1 12:02:41 2016 GMT
        Subject: O=NodeOPCUA, CN=urn:ehome09:NodeOPCUA-Client
        Subject Public Key Info:
            Public Key Algorithm: rsaEncryption
                Public-Key: (1024 bit)
                Modulus:
                    00:c7:da:b7:93:79:32:ff:f3:20:b2:19:99:8d:a6:
                    e5:06:25:d4:54:db:15:c6:fb:4f:37:1c:98:e9:5f:
                    d2:84:99:bb:0a:2b:d2:d0:95:09:0d:15:7c:82:95:
                    57:50:9b:8f:81:32:d0:7a:26:d6:94:d4:4a:1a:5a:
                    89:74:8c:56:46:26:06:2c:4d:be:15:ca:13:68:3b:
                    c2:ab:29:49:6b:b4:91:82:23:34:cb:47:7c:61:6f:
                    6b:c8:93:88:61:3b:56:dd:5e:0e:8f:fd:d3:95:0d:
                    da:b9:a5:9a:0c:09:54:94:02:a8:6c:44:df:fc:9a:
                    e1:e6:3e:f6:36:db:36:9a:35
                Exponent: 65537 (0x10001)
        X509v3 extensions:
            X509v3 Basic Constraints: critical
                CA:FALSE
            X509v3 Subject Key Identifier: 
                B3:42:75:D7:5D:BD:FE:AD:56:B1:0E:C6:AE:FA:08:FA:34:A9:48:25
            X509v3 Authority Key Identifier: 
                keyid:B3:42:75:D7:5D:BD:FE:AD:56:B1:0E:C6:AE:FA:08:FA:34:A9:48:25
                DirName:/O=NodeOPCUA/CN=urn:ehome09:NodeOPCUA-Client
                serial:10:02

            X509v3 Subject Alternative Name: 
                URI:urn:ehome09:NodeOPCUA-Client, DNS:localhost, DNS:ehome09
            Netscape Comment: 
                OpenSSL Generated Certificate
            X509v3 Key Usage: critical
                Digital Signature, Non Repudiation, Key Encipherment, Data Encipherment, Key Agreement, Certificate Sign
            X509v3 Extended Key Usage: critical
                TLS Web Server Authentication, TLS Web Client Authentication
    Signature Algorithm: sha1WithRSAEncryption
         3d:5d:67:90:68:d2:3a:2a:a9:60:80:3a:3f:25:7b:e2:83:27:
         94:be:96:21:20:f4:8c:54:b2:51:1f:f1:f8:cb:82:08:51:45:
         63:68:76:3d:d3:f8:ea:a0:db:12:36:50:d1:5e:a4:d8:8a:ac:
         2d:23:85:b6:9d:2b:c2:4f:2b:e4:98:3e:f1:32:09:b9:ad:ef:
         b5:21:24:44:fe:bf:36:6a:99:4e:1f:a9:95:db:b3:5b:55:37:
         2b:07:a3:d4:55:bc:52:29:61:6f:a4:1c:9d:aa:4c:9c:d2:c0:
         4d:7f:18:02:78:11:df:7a:3e:7f:a8:b2:f6:26:de:9a:e5:89:
         18:ff
-----BEGIN CERTIFICATE-----
MIIDIzCCAoygAwIBAgICEAIwDQYJKoZIhvcNAQEFBQAwOzESMBAGA1UEChMJTm9k
ZU9QQ1VBMSUwIwYDVQQDExx1cm46ZWhvbWUwOTpOb2RlT1BDVUEtQ2xpZW50MB4X
DTE1MDcwMjEyMDI0MVoXDTE2MDcwMTEyMDI0MVowOzESMBAGA1UEChMJTm9kZU9Q
Q1VBMSUwIwYDVQQDExx1cm46ZWhvbWUwOTpOb2RlT1BDVUEtQ2xpZW50MIGfMA0G
CSqGSIb3DQEBAQUAA4GNADCBiQKBgQDH2reTeTL/8yCyGZmNpuUGJdRU2xXG+083
HJjpX9KEmbsKK9LQlQkNFXyClVdQm4+BMtB6JtaU1EoaWol0jFZGJgYsTb4VyhNo
O8KrKUlrtJGCIzTLR3xhb2vIk4hhO1bdXg6P/dOVDdq5pZoMCVSUAqhsRN/8muHm
PvY22zaaNQIDAQABo4IBNDCCATAwDAYDVR0TAQH/BAIwADAdBgNVHQ4EFgQUs0J1
1129/q1WsQ7GrvoI+jSpSCUwZAYDVR0jBF0wW4AUs0J11129/q1WsQ7GrvoI+jSp
SCWhP6Q9MDsxEjAQBgNVBAoTCU5vZGVPUENVQTElMCMGA1UEAxMcdXJuOmVob21l
MDk6Tm9kZU9QQ1VBLUNsaWVudIICEAIwOwYDVR0RBDQwMoYcdXJuOmVob21lMDk6
Tm9kZU9QQ1VBLUNsaWVudIIJbG9jYWxob3N0ggdlaG9tZTA5MCwGCWCGSAGG+EIB
DQQfFh1PcGVuU1NMIEdlbmVyYXRlZCBDZXJ0aWZpY2F0ZTAOBgNVHQ8BAf8EBAMC
AvwwIAYDVR0lAQH/BBYwFAYIKwYBBQUHAwEGCCsGAQUFBwMCMA0GCSqGSIb3DQEB
BQUAA4GBAD1dZ5Bo0joqqWCAOj8le+KDJ5S+liEg9IxUslEf8fjLgghRRWNodj3T
+Oqg2xI2UNFepNiKrC0jhbadK8JPK+SYPvEyCbmt77UhJET+vzZqmU4fqZXbs1tV
NysHo9RVvFIpYW+kHJ2qTJzSwE1/GAJ4Ed96Pn+osvYm3prliRj/
-----END CERTIFICATE-----
