Certificate:
    Data:
        Version: 3 (0x2)
        Serial Number: 4096 (0x1000)
    Signature Algorithm: sha1WithRSAEncryption
        Issuer: C=FR, ST=IDF, L=Paris, O=Fake CA for Test, CN=NodeOPCUA
        Validity
            Not Before: Jul  2 12:02:41 2015 GMT
            Not After : Jul  1 12:02:41 2016 GMT
        Subject: O=NodeOPCUA, CN=urn:ehome09:NodeOPCUA-Client
        Subject Public Key Info:
            Public Key Algorithm: rsaEncryption
                Public-Key: (1024 bit)
                Modulus:
                    00:c7:da:b7:93:79:32:ff:f3:20:b2:19:99:8d:a6:
                    e5:06:25:d4:54:db:15:c6:fb:4f:37:1c:98:e9:5f:
                    d2:84:99:bb:0a:2b:d2:d0:95:09:0d:15:7c:82:95:
                    57:50:9b:8f:81:32:d0:7a:26:d6:94:d4:4a:1a:5a:
                    89:74:8c:56:46:26:06:2c:4d:be:15:ca:13:68:3b:
                    c2:ab:29:49:6b:b4:91:82:23:34:cb:47:7c:61:6f:
                    6b:c8:93:88:61:3b:56:dd:5e:0e:8f:fd:d3:95:0d:
                    da:b9:a5:9a:0c:09:54:94:02:a8:6c:44:df:fc:9a:
                    e1:e6:3e:f6:36:db:36:9a:35
                Exponent: 65537 (0x10001)
        X509v3 extensions:
            X509v3 Basic Constraints: critical
                CA:FALSE
            X509v3 Subject Key Identifier: 
                B3:42:75:D7:5D:BD:FE:AD:56:B1:0E:C6:AE:FA:08:FA:34:A9:48:25
            X509v3 Authority Key Identifier: 
                keyid:D9:88:38:C9:0D:CC:5C:1E:7E:EF:E4:6D:2C:C0:37:B2:14:4E:61:C8
                DirName:/C=FR/ST=IDF/L=Paris/O=Fake CA for Test/CN=NodeOPCUA
                serial:90:D2:7C:E2:A0:55:3C:E7

            X509v3 Subject Alternative Name: 
                URI:urn:ehome09:NodeOPCUA-Client, DNS:localhost, DNS:ehome09
            Netscape Comment: 
                OpenSSL Generated Certificate
            X509v3 Key Usage: critical
                Digital Signature, Non Repudiation, Key Encipherment, Data Encipherment, Key Agreement, Certificate Sign
            X509v3 Extended Key Usage: critical
                TLS Web Server Authentication, TLS Web Client Authentication
    Signature Algorithm: sha1WithRSAEncryption
         65:a3:3c:fe:cf:45:3e:c1:88:28:8b:95:ac:62:8d:c4:92:aa:
         d9:b3:96:aa:4a:90:bb:d5:e7:5f:08:04:d4:32:ec:79:85:65:
         fe:5b:27:5c:0b:c6:1d:98:07:b0:dd:55:79:d1:bb:2e:88:22:
         bf:e7:f3:3b:08:0f:c8:89:9c:90:b7:ad:a5:ea:44:67:81:ae:
         da:d9:41:fb:d7:85:58:a3:13:66:c9:e7:1f:a4:fa:0b:72:df:
         17:da:36:cb:43:38:63:28:49:f0:a7:42:ae:99:c6:7c:14:e5:
         34:21:9d:ca:df:25:43:b4:ad:dc:ee:f1:0d:06:76:a1:c1:e0:
         0d:c5:4c:6b:c6:ad:44:34:a8:17:0e:a4:e4:02:31:d3:5d:b7:
         18:0f:1b:4d:67:cf:30:12:c8:c8:0b:e9:78:21:b9:a2:b5:4a:
         32:9e:fb:2b:31:49:31:be:27:d2:fc:53:52:c3:d6:e7:04:69:
         2c:df:6d:cb:a9:ec:ed:56:c4:3c:ed:2b:2b:59:18:d1:ec:aa:
         c7:63:4d:9a:7b:13:2a:0a:33:a0:5d:17:a4:81:b5:67:ed:9b:
         10:0b:43:c6:12:6c:d6:a8:42:18:84:b9:98:71:27:8f:4c:e2:
         b7:67:d2:a3:5c:ea:92:6c:85:bc:e3:82:ec:3a:96:eb:6c:ee:
         7f:1d:f0:10
-----BEGIN CERTIFICATE-----
MIID7DCCAtSgAwIBAgICEAAwDQYJKoZIhvcNAQEFBQAwWjELMAkGA1UEBhMCRlIx
DDAKBgNVBAgTA0lERjEOMAwGA1UEBxMFUGFyaXMxGTAXBgNVBAoTEEZha2UgQ0Eg
Zm9yIFRlc3QxEjAQBgNVBAMTCU5vZGVPUENVQTAeFw0xNTA3MDIxMjAyNDFaFw0x
NjA3MDExMjAyNDFaMDsxEjAQBgNVBAoTCU5vZGVPUENVQTElMCMGA1UEAxMcdXJu
OmVob21lMDk6Tm9kZU9QQ1VBLUNsaWVudDCBnzANBgkqhkiG9w0BAQEFAAOBjQAw
gYkCgYEAx9q3k3ky//MgshmZjablBiXUVNsVxvtPNxyY6V/ShJm7CivS0JUJDRV8
gpVXUJuPgTLQeibWlNRKGlqJdIxWRiYGLE2+FcoTaDvCqylJa7SRgiM0y0d8YW9r
yJOIYTtW3V4Oj/3TlQ3auaWaDAlUlAKobETf/Jrh5j72Nts2mjUCAwEAAaOCAV0w
ggFZMAwGA1UdEwEB/wQCMAAwHQYDVR0OBBYEFLNCddddvf6tVrEOxq76CPo0qUgl
MIGMBgNVHSMEgYQwgYGAFNmIOMkNzFwefu/kbSzAN7IUTmHIoV6kXDBaMQswCQYD
VQQGEwJGUjEMMAoGA1UECBMDSURGMQ4wDAYDVQQHEwVQYXJpczEZMBcGA1UEChMQ
RmFrZSBDQSBmb3IgVGVzdDESMBAGA1UEAxMJTm9kZU9QQ1VBggkAkNJ84qBVPOcw
OwYDVR0RBDQwMoYcdXJuOmVob21lMDk6Tm9kZU9QQ1VBLUNsaWVudIIJbG9jYWxo
b3N0ggdlaG9tZTA5MCwGCWCGSAGG+EIBDQQfFh1PcGVuU1NMIEdlbmVyYXRlZCBD
ZXJ0aWZpY2F0ZTAOBgNVHQ8BAf8EBAMCAvwwIAYDVR0lAQH/BBYwFAYIKwYBBQUH
AwEGCCsGAQUFBwMCMA0GCSqGSIb3DQEBBQUAA4IBAQBlozz+z0U+wYgoi5WsYo3E
kqrZs5aqSpC71edfCATUMux5hWX+WydcC8YdmAew3VV50bsuiCK/5/M7CA/IiZyQ
t62l6kRnga7a2UH714VYoxNmyecfpPoLct8X2jbLQzhjKEnwp0KumcZ8FOU0IZ3K
3yVDtK3c7vENBnahweANxUxrxq1ENKgXDqTkAjHTXbcYDxtNZ88wEsjIC+l4Ibmi
tUoynvsrMUkxvifS/FNSw9bnBGks323LqeztVsQ87SsrWRjR7KrHY02aexMqCjOg
XRekgbVn7ZsQC0PGEmzWqEIYhLmYcSePTOK3Z9KjXOqSbIW844LsOpbrbO5/HfAQ
-----END CERTIFICATE-----
