Certificate:
    Data:
        Version: 3 (0x2)
        Serial Number: 4103 (0x1007)
    Signature Algorithm: sha1WithRSAEncryption
        Issuer: O=NodeOPCUA, CN=urn:ehome09:NodeOPCUA-Server
        Validity
            Not Before: Jul  2 12:02:41 2015 GMT
            Not After : Jul  1 12:02:41 2016 GMT
        Subject: O=NodeOPCUA, CN=urn:ehome09:NodeOPCUA-Server
        Subject Public Key Info:
            Public Key Algorithm: rsaEncryption
                Public-Key: (2048 bit)
                Modulus:
                    00:bb:f6:9e:62:67:1a:83:de:08:39:60:86:1d:58:
                    fb:a6:37:6e:56:77:fe:41:dc:16:55:42:58:db:22:
                    0e:bc:49:ee:40:d3:6a:c6:8d:a1:4b:a6:ed:e3:46:
                    07:e6:68:3b:85:9f:f1:c7:00:bd:5b:36:60:36:c4:
                    7b:a7:d8:ef:c8:b7:28:bc:88:b5:55:3c:64:b2:46:
                    87:d3:08:2b:24:47:ae:a5:59:ec:8b:c3:59:65:11:
                    e5:30:57:6d:d0:b2:72:80:b4:21:ee:87:63:89:9b:
                    d7:af:40:09:5e:75:f6:ad:f5:ae:cd:63:f9:db:46:
                    a1:31:f6:38:96:3d:ce:a7:37:9b:51:77:8c:f1:c9:
                    e2:9a:c0:f6:35:fc:6b:05:0c:1d:5a:24:5c:25:ac:
                    28:30:de:27:f7:19:02:63:d9:c6:9e:9c:81:d7:7e:
                    3b:0d:cf:d3:60:0d:64:2d:9a:70:bc:aa:8d:34:4a:
                    ec:ff:90:d6:70:62:bb:f9:0a:d2:2f:59:e9:d4:5b:
                    a0:2c:37:09:93:a9:0e:83:75:8e:e0:e6:89:73:d6:
                    bf:60:74:0f:db:c7:05:53:b9:30:d1:3d:7b:4e:02:
                    17:d9:2a:05:b7:30:17:e8:b4:74:2f:76:59:d7:0e:
                    71:14:7a:fc:01:8a:ff:f5:13:57:1f:8a:a8:85:fe:
                    a6:ed
                Exponent: 65537 (0x10001)
        X509v3 extensions:
            X509v3 Basic Constraints: critical
                CA:FALSE
            X509v3 Subject Key Identifier: 
                BF:D5:71:7F:AF:8A:23:BA:8D:1D:77:0E:1E:C4:23:80:EF:C3:A9:28
            X509v3 Authority Key Identifier: 
                keyid:BF:D5:71:7F:AF:8A:23:BA:8D:1D:77:0E:1E:C4:23:80:EF:C3:A9:28
                DirName:/O=NodeOPCUA/CN=urn:ehome09:NodeOPCUA-Server
                serial:10:07

            X509v3 Subject Alternative Name: 
                URI:urn:ehome09:NodeOPCUA-Server, DNS:localhost, DNS:ehome09
            Netscape Comment: 
                OpenSSL Generated Certificate
            X509v3 Key Usage: critical
                Digital Signature, Non Repudiation, Key Encipherment, Data Encipherment, Key Agreement, Certificate Sign
            X509v3 Extended Key Usage: critical
                TLS Web Server Authentication, TLS Web Client Authentication
    Signature Algorithm: sha1WithRSAEncryption
         a9:3b:a9:b2:73:cd:81:9f:30:9d:f6:19:6e:88:cd:f6:98:3c:
         1b:8f:81:7e:ab:87:3e:7a:55:19:00:97:4d:7b:e5:36:30:47:
         cd:ed:78:b0:4b:54:e2:1f:6d:43:fd:77:88:97:de:e7:aa:5b:
         2c:46:12:3e:0c:b8:a2:1c:eb:c8:89:f4:fe:45:bf:41:6a:ee:
         8e:0c:29:b9:b5:a8:b9:91:da:1b:08:05:0d:3e:74:cf:93:05:
         29:2b:f6:26:92:82:95:c7:a8:cd:a9:82:a7:71:ea:44:e4:e6:
         d0:6c:8b:6e:04:e7:0b:4d:7c:78:1f:0f:7c:5f:e0:48:91:b1:
         eb:23:4b:63:75:dc:ac:15:2c:b1:38:4c:c9:e6:28:af:a0:de:
         a7:50:09:c0:ac:9c:13:a0:0c:a1:92:7b:4e:cc:51:63:d0:d5:
         70:2f:ed:e1:c1:b5:40:84:39:c6:3c:80:f4:37:97:5f:51:8b:
         a9:ba:7f:16:49:e7:5d:39:5d:a2:fa:b6:d6:e7:15:15:c0:65:
         8b:d2:a3:1a:1a:36:b3:70:46:15:00:88:56:1c:92:fb:0a:1d:
         01:ec:48:0d:59:fc:b3:0d:13:cb:e1:d5:3a:cf:bc:ea:51:bc:
         6a:dc:22:24:a6:7f:93:6f:0f:c6:29:6e:43:df:65:fd:ed:61:
         1a:e0:65:16
-----BEGIN CERTIFICATE-----
MIIEKDCCAxCgAwIBAgICEAcwDQYJKoZIhvcNAQEFBQAwOzESMBAGA1UEChMJTm9k
ZU9QQ1VBMSUwIwYDVQQDExx1cm46ZWhvbWUwOTpOb2RlT1BDVUEtU2VydmVyMB4X
DTE1MDcwMjEyMDI0MVoXDTE2MDcwMTEyMDI0MVowOzESMBAGA1UEChMJTm9kZU9Q
Q1VBMSUwIwYDVQQDExx1cm46ZWhvbWUwOTpOb2RlT1BDVUEtU2VydmVyMIIBIjAN
BgkqhkiG9w0BAQEFAAOCAQ8AMIIBCgKCAQEAu/aeYmcag94IOWCGHVj7pjduVnf+
QdwWVUJY2yIOvEnuQNNqxo2hS6bt40YH5mg7hZ/xxwC9WzZgNsR7p9jvyLcovIi1
VTxkskaH0wgrJEeupVnsi8NZZRHlMFdt0LJygLQh7odjiZvXr0AJXnX2rfWuzWP5
20ahMfY4lj3OpzebUXeM8cnimsD2NfxrBQwdWiRcJawoMN4n9xkCY9nGnpyB1347
Dc/TYA1kLZpwvKqNNErs/5DWcGK7+QrSL1np1FugLDcJk6kOg3WO4OaJc9a/YHQP
28cFU7kw0T17TgIX2SoFtzAX6LR0L3ZZ1w5xFHr8AYr/9RNXH4qohf6m7QIDAQAB
o4IBNDCCATAwDAYDVR0TAQH/BAIwADAdBgNVHQ4EFgQUv9Vxf6+KI7qNHXcOHsQj
gO/DqSgwZAYDVR0jBF0wW4AUv9Vxf6+KI7qNHXcOHsQjgO/DqSihP6Q9MDsxEjAQ
BgNVBAoTCU5vZGVPUENVQTElMCMGA1UEAxMcdXJuOmVob21lMDk6Tm9kZU9QQ1VB
LVNlcnZlcoICEAcwOwYDVR0RBDQwMoYcdXJuOmVob21lMDk6Tm9kZU9QQ1VBLVNl
cnZlcoIJbG9jYWxob3N0ggdlaG9tZTA5MCwGCWCGSAGG+EIBDQQfFh1PcGVuU1NM
IEdlbmVyYXRlZCBDZXJ0aWZpY2F0ZTAOBgNVHQ8BAf8EBAMCAvwwIAYDVR0lAQH/
BBYwFAYIKwYBBQUHAwEGCCsGAQUFBwMCMA0GCSqGSIb3DQEBBQUAA4IBAQCpO6my
c82BnzCd9hluiM32mDwbj4F+q4c+elUZAJdNe+U2MEfN7XiwS1TiH21D/XeIl97n
qlssRhI+DLiiHOvIifT+Rb9Bau6ODCm5tai5kdobCAUNPnTPkwUpK/YmkoKVx6jN
qYKncepE5ObQbItuBOcLTXx4Hw98X+BIkbHrI0tjddysFSyxOEzJ5iivoN6nUAnA
rJwToAyhkntOzFFj0NVwL+3hwbVAhDnGPID0N5dfUYupun8WSeddOV2i+rbW5xUV
wGWL0qMaGjazcEYVAIhWHJL7Ch0B7EgNWfyzDRPL4dU6z7zqUbxq3CIkpn+Tbw/G
KW5D32X97WEa4GUW
-----END CERTIFICATE-----
