Certificate:
    Data:
        Version: 3 (0x2)
        Serial Number: 4101 (0x1005)
    Signature Algorithm: sha1WithRSAEncryption
        Issuer: C=FR, ST=IDF, L=Paris, O=Fake CA for Test, CN=NodeOPCUA
        Validity
            Not Before: Jul  2 12:02:41 2015 GMT
            Not After : Jul  1 12:02:41 2016 GMT
        Subject: O=NodeOPCUA, CN=urn:ehome09:NodeOPCUA-Server
        Subject Public Key Info:
            Public Key Algorithm: rsaEncryption
                Public-Key: (2048 bit)
                Modulus:
                    00:bb:f6:9e:62:67:1a:83:de:08:39:60:86:1d:58:
                    fb:a6:37:6e:56:77:fe:41:dc:16:55:42:58:db:22:
                    0e:bc:49:ee:40:d3:6a:c6:8d:a1:4b:a6:ed:e3:46:
                    07:e6:68:3b:85:9f:f1:c7:00:bd:5b:36:60:36:c4:
                    7b:a7:d8:ef:c8:b7:28:bc:88:b5:55:3c:64:b2:46:
                    87:d3:08:2b:24:47:ae:a5:59:ec:8b:c3:59:65:11:
                    e5:30:57:6d:d0:b2:72:80:b4:21:ee:87:63:89:9b:
                    d7:af:40:09:5e:75:f6:ad:f5:ae:cd:63:f9:db:46:
                    a1:31:f6:38:96:3d:ce:a7:37:9b:51:77:8c:f1:c9:
                    e2:9a:c0:f6:35:fc:6b:05:0c:1d:5a:24:5c:25:ac:
                    28:30:de:27:f7:19:02:63:d9:c6:9e:9c:81:d7:7e:
                    3b:0d:cf:d3:60:0d:64:2d:9a:70:bc:aa:8d:34:4a:
                    ec:ff:90:d6:70:62:bb:f9:0a:d2:2f:59:e9:d4:5b:
                    a0:2c:37:09:93:a9:0e:83:75:8e:e0:e6:89:73:d6:
                    bf:60:74:0f:db:c7:05:53:b9:30:d1:3d:7b:4e:02:
                    17:d9:2a:05:b7:30:17:e8:b4:74:2f:76:59:d7:0e:
                    71:14:7a:fc:01:8a:ff:f5:13:57:1f:8a:a8:85:fe:
                    a6:ed
                Exponent: 65537 (0x10001)
        X509v3 extensions:
            X509v3 Basic Constraints: critical
                CA:FALSE
            X509v3 Subject Key Identifier: 
                BF:D5:71:7F:AF:8A:23:BA:8D:1D:77:0E:1E:C4:23:80:EF:C3:A9:28
            X509v3 Authority Key Identifier: 
                keyid:D9:88:38:C9:0D:CC:5C:1E:7E:EF:E4:6D:2C:C0:37:B2:14:4E:61:C8
                DirName:/C=FR/ST=IDF/L=Paris/O=Fake CA for Test/CN=NodeOPCUA
                serial:90:D2:7C:E2:A0:55:3C:E7

            X509v3 Subject Alternative Name: 
                URI:urn:ehome09:NodeOPCUA-Server, DNS:localhost, DNS:ehome09
            Netscape Comment: 
                OpenSSL Generated Certificate
            X509v3 Key Usage: critical
                Digital Signature, Non Repudiation, Key Encipherment, Data Encipherment, Key Agreement, Certificate Sign
            X509v3 Extended Key Usage: critical
                TLS Web Server Authentication, TLS Web Client Authentication
    Signature Algorithm: sha1WithRSAEncryption
         1c:57:06:96:f4:20:1f:65:dc:2a:07:9f:ca:54:cf:af:75:aa:
         f6:8f:b0:fc:23:da:86:81:a2:21:0d:4e:76:d8:08:6f:e7:0b:
         a3:64:21:57:10:cc:b9:d5:e6:fc:09:12:19:2f:7d:68:a4:13:
         2b:fb:c8:39:47:ee:4a:ad:53:ac:dd:70:9a:cf:1e:91:34:ba:
         96:d3:3e:dc:10:72:43:47:30:e5:e1:5d:1c:19:2b:89:bd:fa:
         2a:c0:bb:ab:a1:0b:4d:7e:96:25:89:c9:59:80:3a:d0:3f:6d:
         7c:1a:50:cf:0b:5e:52:a2:0d:67:ee:e4:2b:39:55:08:8b:78:
         f6:7a:01:3f:c8:9c:97:14:2f:dd:92:9d:1e:38:f2:69:1a:24:
         bf:25:a6:84:5d:f3:6a:91:01:ea:15:40:5e:a9:d0:91:40:55:
         c5:1f:0d:c7:f8:9c:d4:e5:28:d8:e1:54:06:42:21:59:08:b2:
         ad:e1:89:ab:d2:00:e6:d0:ed:a9:4a:de:8a:5b:ba:1f:1a:1a:
         bd:06:ca:65:22:a7:7f:aa:25:48:7e:ba:1f:56:53:ed:c5:f1:
         86:cb:b8:53:7d:82:81:52:26:9b:78:ad:37:45:42:9a:09:a0:
         94:8b:94:e4:95:65:14:10:3b:59:bb:58:ce:06:85:4f:b6:7b:
         46:ef:3a:3d
-----BEGIN CERTIFICATE-----
MIIEcDCCA1igAwIBAgICEAUwDQYJKoZIhvcNAQEFBQAwWjELMAkGA1UEBhMCRlIx
DDAKBgNVBAgTA0lERjEOMAwGA1UEBxMFUGFyaXMxGTAXBgNVBAoTEEZha2UgQ0Eg
Zm9yIFRlc3QxEjAQBgNVBAMTCU5vZGVPUENVQTAeFw0xNTA3MDIxMjAyNDFaFw0x
NjA3MDExMjAyNDFaMDsxEjAQBgNVBAoTCU5vZGVPUENVQTElMCMGA1UEAxMcdXJu
OmVob21lMDk6Tm9kZU9QQ1VBLVNlcnZlcjCCASIwDQYJKoZIhvcNAQEBBQADggEP
ADCCAQoCggEBALv2nmJnGoPeCDlghh1Y+6Y3blZ3/kHcFlVCWNsiDrxJ7kDTasaN
oUum7eNGB+ZoO4Wf8ccAvVs2YDbEe6fY78i3KLyItVU8ZLJGh9MIKyRHrqVZ7IvD
WWUR5TBXbdCycoC0Ie6HY4mb169ACV519q31rs1j+dtGoTH2OJY9zqc3m1F3jPHJ
4prA9jX8awUMHVokXCWsKDDeJ/cZAmPZxp6cgdd+Ow3P02ANZC2acLyqjTRK7P+Q
1nBiu/kK0i9Z6dRboCw3CZOpDoN1juDmiXPWv2B0D9vHBVO5MNE9e04CF9kqBbcw
F+i0dC92WdcOcRR6/AGK//UTVx+KqIX+pu0CAwEAAaOCAV0wggFZMAwGA1UdEwEB
/wQCMAAwHQYDVR0OBBYEFL/VcX+viiO6jR13Dh7EI4Dvw6koMIGMBgNVHSMEgYQw
gYGAFNmIOMkNzFwefu/kbSzAN7IUTmHIoV6kXDBaMQswCQYDVQQGEwJGUjEMMAoG
A1UECBMDSURGMQ4wDAYDVQQHEwVQYXJpczEZMBcGA1UEChMQRmFrZSBDQSBmb3Ig
VGVzdDESMBAGA1UEAxMJTm9kZU9QQ1VBggkAkNJ84qBVPOcwOwYDVR0RBDQwMoYc
dXJuOmVob21lMDk6Tm9kZU9QQ1VBLVNlcnZlcoIJbG9jYWxob3N0ggdlaG9tZTA5
MCwGCWCGSAGG+EIBDQQfFh1PcGVuU1NMIEdlbmVyYXRlZCBDZXJ0aWZpY2F0ZTAO
BgNVHQ8BAf8EBAMCAvwwIAYDVR0lAQH/BBYwFAYIKwYBBQUHAwEGCCsGAQUFBwMC
MA0GCSqGSIb3DQEBBQUAA4IBAQAcVwaW9CAfZdwqB5/KVM+vdar2j7D8I9qGgaIh
DU522Ahv5wujZCFXEMy51eb8CRIZL31opBMr+8g5R+5KrVOs3XCazx6RNLqW0z7c
EHJDRzDl4V0cGSuJvfoqwLuroQtNfpYliclZgDrQP218GlDPC15Sog1n7uQrOVUI
i3j2egE/yJyXFC/dkp0eOPJpGiS/JaaEXfNqkQHqFUBeqdCRQFXFHw3H+JzU5SjY
4VQGQiFZCLKt4Ymr0gDm0O2pSt6KW7ofGhq9BsplIqd/qiVIfrofVlPtxfGGy7hT
fYKBUiabeK03RUKaCaCUi5TklWUUEDtZu1jOBoVPtntG7zo9
-----END CERTIFICATE-----
