Certificate:
    Data:
        Version: 3 (0x2)
        Serial Number: 4097 (0x1001)
    Signature Algorithm: sha1WithRSAEncryption
        Issuer: C=FR, ST=IDF, L=Paris, O=Fake CA for Test, CN=NodeOPCUA
        Validity
            Not Before: Jul  2 12:12:53 2015 GMT
            Not After : Jul  1 12:12:53 2016 GMT
        Subject: O=NodeOPCUA, CN=urn:ehome09:NodeOPCUA-Client
        Subject Public Key Info:
            Public Key Algorithm: rsaEncryption
                Public-Key: (2048 bit)
                Modulus:
                    00:9d:fc:4b:23:d1:75:c2:bd:75:03:46:3b:ea:c6:
                    50:2f:59:df:f9:f4:76:4f:ae:5d:7e:c7:b2:42:fa:
                    97:cf:fe:bf:aa:33:ad:0c:b6:7b:51:8f:09:e4:8c:
                    18:65:58:05:02:eb:02:ef:4c:10:55:70:df:50:f4:
                    e1:4d:77:66:35:78:6e:40:f6:d6:ef:e0:b9:19:53:
                    2c:62:4d:5a:bf:de:bf:3a:3a:8a:7d:18:c9:1f:8e:
                    8d:e5:3b:ee:10:14:c8:14:8f:63:be:a8:ff:11:87:
                    6a:61:2e:2f:72:9c:fc:e0:e5:63:35:bc:22:94:49:
                    fa:35:77:60:b6:eb:80:3a:25:af:57:6f:b2:b5:f3:
                    72:13:a7:dc:04:c8:d7:5e:b1:aa:8c:7f:c2:73:75:
                    66:34:b3:47:71:6c:da:65:4c:ea:cc:0b:be:e4:98:
                    0a:ea:37:85:78:49:66:7c:e3:6a:00:bc:34:c3:1c:
                    96:b7:66:9d:6a:7f:7d:12:32:87:c8:36:a4:b3:d0:
                    2a:45:36:da:26:37:00:c4:50:85:82:84:4e:21:3d:
                    cc:9b:07:de:0d:32:f4:c9:28:5f:57:1d:68:e8:92:
                    61:2a:a2:ad:11:d2:4d:07:1f:19:0d:5e:a4:30:1d:
                    99:d9:76:46:15:ec:89:e8:13:c3:ec:7c:f9:2c:bf:
                    d6:79
                Exponent: 65537 (0x10001)
        X509v3 extensions:
            X509v3 Basic Constraints: critical
                CA:FALSE
            X509v3 Subject Key Identifier: 
                5A:0B:9B:6C:A5:12:71:3F:7B:75:FF:DB:BB:EC:23:0C:13:29:46:BC
            X509v3 Authority Key Identifier: 
                keyid:4A:C4:74:97:DA:18:1B:32:DB:FC:CA:2C:7E:77:5E:67:DC:A5:91:68
                DirName:/C=FR/ST=IDF/L=Paris/O=Fake CA for Test/CN=NodeOPCUA
                serial:DB:E0:D1:FD:65:C1:BB:49

            X509v3 Subject Alternative Name: 
                URI:urn:ehome09:NodeOPCUA-Client, DNS:localhost, DNS:ehome09
            Netscape Comment: 
                OpenSSL Generated Certificate
            X509v3 Key Usage: critical
                Digital Signature, Non Repudiation, Key Encipherment, Data Encipherment, Key Agreement, Certificate Sign
            X509v3 Extended Key Usage: critical
                TLS Web Server Authentication, TLS Web Client Authentication
    Signature Algorithm: sha1WithRSAEncryption
         02:8a:b0:a0:1e:95:14:65:97:83:bb:33:da:0b:5a:51:c1:45:
         85:f6:5d:20:53:38:38:a9:03:d5:6a:a1:80:6f:43:78:81:88:
         99:4f:e7:46:fa:8b:28:24:f1:73:72:48:18:8a:c2:97:c6:3c:
         60:03:65:df:e9:74:8b:91:3a:c4:85:47:a6:eb:05:e1:60:3d:
         e8:2b:d8:73:a7:0f:0e:87:65:a6:0c:2c:97:d6:e5:37:53:be:
         e3:fd:65:36:0d:47:a0:76:84:e5:e6:72:15:8d:65:79:87:bc:
         83:93:e9:d2:95:d1:a6:52:77:d2:b5:ad:e8:e4:23:ca:bf:9f:
         39:3f:d8:71:d4:dc:0e:b1:06:56:fb:5f:d9:6e:af:7b:c9:8b:
         58:f4:b0:f1:6b:49:a5:db:6a:79:da:18:29:4b:0b:6c:83:bb:
         f3:e2:ae:5c:7c:ad:36:01:53:cf:02:f7:54:e2:ff:59:e0:4f:
         27:8a:62:95:ee:1a:1b:c2:10:0c:98:2d:a4:ed:cd:f7:69:2c:
         51:f0:71:8b:f4:cd:bc:94:77:87:06:36:b4:be:38:8c:85:97:
         dc:21:e7:ba:9d:87:1b:c6:b2:b6:8d:8e:85:4a:84:4f:31:2b:
         4b:7e:a2:6f:eb:b2:bf:3f:ac:ae:c3:84:f7:7b:ff:f4:9b:e6:
         75:cc:e4:18
-----BEGIN CERTIFICATE-----
MIIEcDCCA1igAwIBAgICEAEwDQYJKoZIhvcNAQEFBQAwWjELMAkGA1UEBhMCRlIx
DDAKBgNVBAgTA0lERjEOMAwGA1UEBxMFUGFyaXMxGTAXBgNVBAoTEEZha2UgQ0Eg
Zm9yIFRlc3QxEjAQBgNVBAMTCU5vZGVPUENVQTAeFw0xNTA3MDIxMjEyNTNaFw0x
NjA3MDExMjEyNTNaMDsxEjAQBgNVBAoTCU5vZGVPUENVQTElMCMGA1UEAxMcdXJu
OmVob21lMDk6Tm9kZU9QQ1VBLUNsaWVudDCCASIwDQYJKoZIhvcNAQEBBQADggEP
ADCCAQoCggEBAJ38SyPRdcK9dQNGO+rGUC9Z3/n0dk+uXX7HskL6l8/+v6ozrQy2
e1GPCeSMGGVYBQLrAu9MEFVw31D04U13ZjV4bkD21u/guRlTLGJNWr/evzo6in0Y
yR+OjeU77hAUyBSPY76o/xGHamEuL3Kc/ODlYzW8IpRJ+jV3YLbrgDolr1dvsrXz
chOn3ATI116xqox/wnN1ZjSzR3Fs2mVM6swLvuSYCuo3hXhJZnzjagC8NMMclrdm
nWp/fRIyh8g2pLPQKkU22iY3AMRQhYKETiE9zJsH3g0y9MkoX1cdaOiSYSqirRHS
TQcfGQ1epDAdmdl2RhXsiegTw+x8+Sy/1nkCAwEAAaOCAV0wggFZMAwGA1UdEwEB
/wQCMAAwHQYDVR0OBBYEFFoLm2ylEnE/e3X/27vsIwwTKUa8MIGMBgNVHSMEgYQw
gYGAFErEdJfaGBsy2/zKLH53XmfcpZFooV6kXDBaMQswCQYDVQQGEwJGUjEMMAoG
A1UECBMDSURGMQ4wDAYDVQQHEwVQYXJpczEZMBcGA1UEChMQRmFrZSBDQSBmb3Ig
VGVzdDESMBAGA1UEAxMJTm9kZU9QQ1VBggkA2+DR/WXBu0kwOwYDVR0RBDQwMoYc
dXJuOmVob21lMDk6Tm9kZU9QQ1VBLUNsaWVudIIJbG9jYWxob3N0ggdlaG9tZTA5
MCwGCWCGSAGG+EIBDQQfFh1PcGVuU1NMIEdlbmVyYXRlZCBDZXJ0aWZpY2F0ZTAO
BgNVHQ8BAf8EBAMCAvwwIAYDVR0lAQH/BBYwFAYIKwYBBQUHAwEGCCsGAQUFBwMC
MA0GCSqGSIb3DQEBBQUAA4IBAQACirCgHpUUZZeDuzPaC1pRwUWF9l0gUzg4qQPV
aqGAb0N4gYiZT+dG+osoJPFzckgYisKXxjxgA2Xf6XSLkTrEhUem6wXhYD3oK9hz
pw8Oh2WmDCyX1uU3U77j/WU2DUegdoTl5nIVjWV5h7yDk+nSldGmUnfSta3o5CPK
v585P9hx1NwOsQZW+1/Zbq97yYtY9LDxa0ml22p52hgpSwtsg7vz4q5cfK02AVPP
AvdU4v9Z4E8nimKV7hobwhAMmC2k7c33aSxR8HGL9M28lHeHBja0vjiMhZfcIee6
nYcbxrK2jY6FSoRPMStLfqJv67K/P6yuw4T3e//0m+Z1zOQY
-----END CERTIFICATE-----
