Certificate:
    Data:
        Version: 3 (0x2)
        Serial Number: 4099 (0x1003)
    Signature Algorithm: sha1WithRSAEncryption
        Issuer: O=NodeOPCUA, CN=urn:ehome09:NodeOPCUA-Client
        Validity
            Not Before: Jul  2 12:12:53 2015 GMT
            Not After : Jul  1 12:12:53 2016 GMT
        Subject: O=NodeOPCUA, CN=urn:ehome09:NodeOPCUA-Client
        Subject Public Key Info:
            Public Key Algorithm: rsaEncryption
                Public-Key: (2048 bit)
                Modulus:
                    00:9d:fc:4b:23:d1:75:c2:bd:75:03:46:3b:ea:c6:
                    50:2f:59:df:f9:f4:76:4f:ae:5d:7e:c7:b2:42:fa:
                    97:cf:fe:bf:aa:33:ad:0c:b6:7b:51:8f:09:e4:8c:
                    18:65:58:05:02:eb:02:ef:4c:10:55:70:df:50:f4:
                    e1:4d:77:66:35:78:6e:40:f6:d6:ef:e0:b9:19:53:
                    2c:62:4d:5a:bf:de:bf:3a:3a:8a:7d:18:c9:1f:8e:
                    8d:e5:3b:ee:10:14:c8:14:8f:63:be:a8:ff:11:87:
                    6a:61:2e:2f:72:9c:fc:e0:e5:63:35:bc:22:94:49:
                    fa:35:77:60:b6:eb:80:3a:25:af:57:6f:b2:b5:f3:
                    72:13:a7:dc:04:c8:d7:5e:b1:aa:8c:7f:c2:73:75:
                    66:34:b3:47:71:6c:da:65:4c:ea:cc:0b:be:e4:98:
                    0a:ea:37:85:78:49:66:7c:e3:6a:00:bc:34:c3:1c:
                    96:b7:66:9d:6a:7f:7d:12:32:87:c8:36:a4:b3:d0:
                    2a:45:36:da:26:37:00:c4:50:85:82:84:4e:21:3d:
                    cc:9b:07:de:0d:32:f4:c9:28:5f:57:1d:68:e8:92:
                    61:2a:a2:ad:11:d2:4d:07:1f:19:0d:5e:a4:30:1d:
                    99:d9:76:46:15:ec:89:e8:13:c3:ec:7c:f9:2c:bf:
                    d6:79
                Exponent: 65537 (0x10001)
        X509v3 extensions:
            X509v3 Basic Constraints: critical
                CA:FALSE
            X509v3 Subject Key Identifier: 
                5A:0B:9B:6C:A5:12:71:3F:7B:75:FF:DB:BB:EC:23:0C:13:29:46:BC
            X509v3 Authority Key Identifier: 
                keyid:5A:0B:9B:6C:A5:12:71:3F:7B:75:FF:DB:BB:EC:23:0C:13:29:46:BC
                DirName:/O=NodeOPCUA/CN=urn:ehome09:NodeOPCUA-Client
                serial:10:03

            X509v3 Subject Alternative Name: 
                URI:urn:ehome09:NodeOPCUA-Client, DNS:localhost, DNS:ehome09
            Netscape Comment: 
                OpenSSL Generated Certificate
            X509v3 Key Usage: critical
                Digital Signature, Non Repudiation, Key Encipherment, Data Encipherment, Key Agreement, Certificate Sign
            X509v3 Extended Key Usage: critical
                TLS Web Server Authentication, TLS Web Client Authentication
    Signature Algorithm: sha1WithRSAEncryption
         1b:5c:88:ff:6a:d6:76:da:49:63:5f:a0:da:d1:e2:8d:44:d0:
         e3:c9:d1:ac:0b:2e:e0:ad:47:05:b3:74:fb:be:35:07:c9:b7:
         44:12:0e:ce:cc:9a:42:41:e1:21:54:bb:1a:cd:4c:c1:91:b2:
         db:76:50:63:b5:c7:9e:dc:47:d9:93:52:aa:d4:45:62:6f:b5:
         2e:23:b9:b6:de:fe:2e:87:af:83:05:f4:df:1f:ea:5e:f5:66:
         ae:3c:be:0e:86:39:60:29:1c:a1:a4:69:5e:c4:17:02:b6:37:
         e2:57:30:6e:f5:69:a7:b7:b9:f4:4e:a3:44:a6:ff:86:c9:d8:
         ba:60:d6:46:d4:4c:10:bc:3a:ab:ff:53:56:24:4f:42:20:36:
         9b:bb:80:9e:d1:12:4a:7e:35:d3:7e:37:e7:8e:89:96:a7:3a:
         9b:d0:01:3d:c3:4e:6d:ac:e0:ec:3c:9d:47:e7:17:cd:86:82:
         f0:ba:b1:76:05:a7:4d:28:13:0d:91:ee:19:b1:df:84:27:c7:
         7d:e3:c2:0f:8d:c6:82:1a:2c:8d:eb:06:6e:20:4d:39:cf:02:
         d7:2d:06:4f:be:a4:77:b8:59:57:81:c4:f9:dc:80:66:2c:da:
         b5:d2:b7:df:87:b1:dd:5a:b0:33:7c:89:60:df:47:9c:6f:11:
         3d:a2:c2:24
-----BEGIN CERTIFICATE-----
MIIEKDCCAxCgAwIBAgICEAMwDQYJKoZIhvcNAQEFBQAwOzESMBAGA1UEChMJTm9k
ZU9QQ1VBMSUwIwYDVQQDExx1cm46ZWhvbWUwOTpOb2RlT1BDVUEtQ2xpZW50MB4X
DTE1MDcwMjEyMTI1M1oXDTE2MDcwMTEyMTI1M1owOzESMBAGA1UEChMJTm9kZU9Q
Q1VBMSUwIwYDVQQDExx1cm46ZWhvbWUwOTpOb2RlT1BDVUEtQ2xpZW50MIIBIjAN
BgkqhkiG9w0BAQEFAAOCAQ8AMIIBCgKCAQEAnfxLI9F1wr11A0Y76sZQL1nf+fR2
T65dfseyQvqXz/6/qjOtDLZ7UY8J5IwYZVgFAusC70wQVXDfUPThTXdmNXhuQPbW
7+C5GVMsYk1av96/OjqKfRjJH46N5TvuEBTIFI9jvqj/EYdqYS4vcpz84OVjNbwi
lEn6NXdgtuuAOiWvV2+ytfNyE6fcBMjXXrGqjH/Cc3VmNLNHcWzaZUzqzAu+5JgK
6jeFeElmfONqALw0wxyWt2adan99EjKHyDaks9AqRTbaJjcAxFCFgoROIT3Mmwfe
DTL0yShfVx1o6JJhKqKtEdJNBx8ZDV6kMB2Z2XZGFeyJ6BPD7Hz5LL/WeQIDAQAB
o4IBNDCCATAwDAYDVR0TAQH/BAIwADAdBgNVHQ4EFgQUWgubbKUScT97df/bu+wj
DBMpRrwwZAYDVR0jBF0wW4AUWgubbKUScT97df/bu+wjDBMpRryhP6Q9MDsxEjAQ
BgNVBAoTCU5vZGVPUENVQTElMCMGA1UEAxMcdXJuOmVob21lMDk6Tm9kZU9QQ1VB
LUNsaWVudIICEAMwOwYDVR0RBDQwMoYcdXJuOmVob21lMDk6Tm9kZU9QQ1VBLUNs
aWVudIIJbG9jYWxob3N0ggdlaG9tZTA5MCwGCWCGSAGG+EIBDQQfFh1PcGVuU1NM
IEdlbmVyYXRlZCBDZXJ0aWZpY2F0ZTAOBgNVHQ8BAf8EBAMCAvwwIAYDVR0lAQH/
BBYwFAYIKwYBBQUHAwEGCCsGAQUFBwMCMA0GCSqGSIb3DQEBBQUAA4IBAQAbXIj/
atZ22kljX6Da0eKNRNDjydGsCy7grUcFs3T7vjUHybdEEg7OzJpCQeEhVLsazUzB
kbLbdlBjtcee3EfZk1Kq1EVib7UuI7m23v4uh6+DBfTfH+pe9WauPL4OhjlgKRyh
pGlexBcCtjfiVzBu9Wmnt7n0TqNEpv+Gydi6YNZG1EwQvDqr/1NWJE9CIDabu4Ce
0RJKfjXTfjfnjomWpzqb0AE9w05trODsPJ1H5xfNhoLwurF2BadNKBMNke4Zsd+E
J8d948IPjcaCGiyN6wZuIE05zwLXLQZPvqR3uFlXgcT53IBmLNq10rffh7HdWrAz
fIlg30ecbxE9osIk
-----END CERTIFICATE-----
