Certificate:
    Data:
        Version: 3 (0x2)
        Serial Number: 4102 (0x1006)
    Signature Algorithm: sha1WithRSAEncryption
        Issuer: O=NodeOPCUA, CN=urn:ehome09:NodeOPCUA-Server
        Validity
            Not Before: Jul  2 12:12:53 2015 GMT
            Not After : Jul  1 12:12:53 2016 GMT
        Subject: O=NodeOPCUA, CN=urn:ehome09:NodeOPCUA-Server
        Subject Public Key Info:
            Public Key Algorithm: rsaEncryption
                Public-Key: (1024 bit)
                Modulus:
                    00:b0:d5:c7:5a:ca:27:4e:13:d6:fc:7f:6a:ce:b4:
                    e0:ed:27:f1:df:86:b2:0d:80:78:17:28:d3:0f:1e:
                    24:66:cd:5b:36:b7:5e:23:f5:a1:a9:72:43:97:23:
                    c2:7d:42:47:82:a8:93:64:91:58:b7:e9:cd:a7:d3:
                    bf:ce:09:c6:26:73:b6:54:36:7b:3e:0b:21:5e:21:
                    f4:dd:6f:1e:c0:a5:e1:28:cb:bd:c3:08:33:37:b7:
                    43:3b:70:d2:f6:af:39:22:19:12:e7:45:20:b0:76:
                    af:8f:63:fd:b5:6e:79:d6:64:ff:7b:e9:a2:f3:0b:
                    62:2d:48:38:60:90:11:85:e9
                Exponent: 65537 (0x10001)
        X509v3 extensions:
            X509v3 Basic Constraints: critical
                CA:FALSE
            X509v3 Subject Key Identifier: 
                55:71:9B:48:08:F3:A1:1D:76:A0:AA:98:89:2A:32:99:93:E8:32:78
            X509v3 Authority Key Identifier: 
                keyid:55:71:9B:48:08:F3:A1:1D:76:A0:AA:98:89:2A:32:99:93:E8:32:78
                DirName:/O=NodeOPCUA/CN=urn:ehome09:NodeOPCUA-Server
                serial:10:06

            X509v3 Subject Alternative Name: 
                URI:urn:ehome09:NodeOPCUA-Server, DNS:localhost, DNS:ehome09
            Netscape Comment: 
                OpenSSL Generated Certificate
            X509v3 Key Usage: critical
                Digital Signature, Non Repudiation, Key Encipherment, Data Encipherment, Key Agreement, Certificate Sign
            X509v3 Extended Key Usage: critical
                TLS Web Server Authentication, TLS Web Client Authentication
    Signature Algorithm: sha1WithRSAEncryption
         83:31:a8:97:1a:14:58:ff:3d:e1:3c:6b:33:dd:b8:0a:b9:a7:
         8a:18:e2:40:c4:18:fc:35:81:83:4f:07:5b:94:48:47:b7:c9:
         07:48:02:43:43:c1:dd:b6:98:0f:db:99:54:83:67:75:56:65:
         31:2a:95:23:38:4d:7c:cd:1e:53:f9:ec:c6:db:d6:b4:7e:c3:
         e8:02:0b:ae:28:02:5c:ad:ac:0c:bb:5f:76:79:5b:cf:c9:fa:
         59:5b:f5:c9:e6:e1:d4:5a:f7:33:be:dd:82:b9:ca:19:d4:69:
         d9:34:d4:df:b4:d3:9d:30:d3:23:15:49:c7:3d:d7:9b:5b:43:
         49:d8
-----BEGIN CERTIFICATE-----
MIIDIzCCAoygAwIBAgICEAYwDQYJKoZIhvcNAQEFBQAwOzESMBAGA1UEChMJTm9k
ZU9QQ1VBMSUwIwYDVQQDExx1cm46ZWhvbWUwOTpOb2RlT1BDVUEtU2VydmVyMB4X
DTE1MDcwMjEyMTI1M1oXDTE2MDcwMTEyMTI1M1owOzESMBAGA1UEChMJTm9kZU9Q
Q1VBMSUwIwYDVQQDExx1cm46ZWhvbWUwOTpOb2RlT1BDVUEtU2VydmVyMIGfMA0G
CSqGSIb3DQEBAQUAA4GNADCBiQKBgQCw1cdayidOE9b8f2rOtODtJ/HfhrINgHgX
KNMPHiRmzVs2t14j9aGpckOXI8J9QkeCqJNkkVi36c2n07/OCcYmc7ZUNns+CyFe
IfTdbx7ApeEoy73DCDM3t0M7cNL2rzkiGRLnRSCwdq+PY/21bnnWZP976aLzC2It
SDhgkBGF6QIDAQABo4IBNDCCATAwDAYDVR0TAQH/BAIwADAdBgNVHQ4EFgQUVXGb
SAjzoR12oKqYiSoymZPoMngwZAYDVR0jBF0wW4AUVXGbSAjzoR12oKqYiSoymZPo
MnihP6Q9MDsxEjAQBgNVBAoTCU5vZGVPUENVQTElMCMGA1UEAxMcdXJuOmVob21l
MDk6Tm9kZU9QQ1VBLVNlcnZlcoICEAYwOwYDVR0RBDQwMoYcdXJuOmVob21lMDk6
Tm9kZU9QQ1VBLVNlcnZlcoIJbG9jYWxob3N0ggdlaG9tZTA5MCwGCWCGSAGG+EIB
DQQfFh1PcGVuU1NMIEdlbmVyYXRlZCBDZXJ0aWZpY2F0ZTAOBgNVHQ8BAf8EBAMC
AvwwIAYDVR0lAQH/BBYwFAYIKwYBBQUHAwEGCCsGAQUFBwMCMA0GCSqGSIb3DQEB
BQUAA4GBAIMxqJcaFFj/PeE8azPduAq5p4oY4kDEGPw1gYNPB1uUSEe3yQdIAkND
wd22mA/bmVSDZ3VWZTEqlSM4TXzNHlP57Mbb1rR+w+gCC64oAlytrAy7X3Z5W8/J
+llb9cnm4dRa9zO+3YK5yhnUadk01N+0050w0yMVScc915tbQ0nY
-----END CERTIFICATE-----
