Certificate:
    Data:
        Version: 3 (0x2)
        Serial Number: 4096 (0x1000)
    Signature Algorithm: sha1WithRSAEncryption
        Issuer: C=FR, ST=IDF, L=Paris, O=Fake CA for Test, CN=NodeOPCUA
        Validity
            Not Before: Jul  2 12:12:53 2015 GMT
            Not After : Jul  1 12:12:53 2016 GMT
        Subject: O=NodeOPCUA, CN=urn:ehome09:NodeOPCUA-Client
        Subject Public Key Info:
            Public Key Algorithm: rsaEncryption
                Public-Key: (1024 bit)
                Modulus:
                    00:9f:53:af:96:ef:5d:4e:ab:a3:52:e2:e0:65:97:
                    99:c4:e6:92:98:75:95:15:34:29:2e:fa:fa:03:9f:
                    99:06:2a:b5:0c:c1:b8:a7:d6:fe:0c:2a:6c:17:7a:
                    c9:36:22:c5:25:68:ab:1e:ee:ff:07:6a:79:1c:9e:
                    b3:27:69:3c:0e:b5:49:ce:79:17:3b:be:15:0d:44:
                    e4:1d:05:5b:9e:98:08:e4:db:e2:13:e3:bf:77:b5:
                    94:2f:89:f2:45:14:c3:c3:97:fd:8f:d5:cf:33:73:
                    2c:6c:08:c5:48:4e:0b:02:96:15:ff:06:ce:b2:b9:
                    34:c1:02:ff:f3:52:1e:e1:e1
                Exponent: 65537 (0x10001)
        X509v3 extensions:
            X509v3 Basic Constraints: critical
                CA:FALSE
            X509v3 Subject Key Identifier: 
                55:01:7C:07:0D:31:C4:C7:81:7D:B2:4F:B1:7B:92:16:66:34:24:5D
            X509v3 Authority Key Identifier: 
                keyid:4A:C4:74:97:DA:18:1B:32:DB:FC:CA:2C:7E:77:5E:67:DC:A5:91:68
                DirName:/C=FR/ST=IDF/L=Paris/O=Fake CA for Test/CN=NodeOPCUA
                serial:DB:E0:D1:FD:65:C1:BB:49

            X509v3 Subject Alternative Name: 
                URI:urn:ehome09:NodeOPCUA-Client, DNS:localhost, DNS:ehome09
            Netscape Comment: 
                OpenSSL Generated Certificate
            X509v3 Key Usage: critical
                Digital Signature, Non Repudiation, Key Encipherment, Data Encipherment, Key Agreement, Certificate Sign
            X509v3 Extended Key Usage: critical
                TLS Web Server Authentication, TLS Web Client Authentication
    Signature Algorithm: sha1WithRSAEncryption
         0f:92:ce:c3:7c:59:52:f9:4a:8c:27:80:cd:be:bf:89:20:57:
         3d:41:4a:d7:a1:75:07:3f:e8:f2:37:61:0e:88:92:7e:7c:a1:
         c8:23:bc:87:f6:06:c5:2c:b4:4e:b1:21:fe:45:cc:a4:99:31:
         0f:08:97:00:b2:d8:c7:51:75:6a:52:e8:bd:08:8a:b0:31:46:
         c6:7b:49:ff:b2:dc:60:04:23:7a:c3:27:7b:a5:c1:f6:f2:83:
         62:1f:b3:83:8c:5f:67:94:39:c5:98:b4:3b:96:6a:5b:e6:c4:
         29:f6:43:8e:62:64:0c:2e:b1:30:6b:ff:98:09:63:96:57:44:
         f4:96:ad:da:f0:cf:1b:75:65:90:1a:15:d0:0d:9e:9e:dd:a0:
         36:09:87:c2:74:f4:11:99:03:09:72:19:ca:7d:3b:62:50:ee:
         de:61:93:ac:15:49:7a:9b:7e:19:39:bf:7f:0d:84:1f:77:f2:
         74:86:b3:67:d2:cd:39:52:0a:27:0f:ee:fd:29:9f:8a:70:67:
         e5:76:b1:83:6c:af:eb:fb:16:15:7d:d4:13:cc:ec:52:9e:63:
         3a:51:18:c4:ac:c4:6d:2b:3e:29:f9:ed:72:de:66:b5:3d:e3:
         42:7b:c7:2c:5f:2d:eb:36:e9:ab:86:92:57:11:75:96:01:7a:
         40:3b:c9:d9
-----BEGIN CERTIFICATE-----
MIID7DCCAtSgAwIBAgICEAAwDQYJKoZIhvcNAQEFBQAwWjELMAkGA1UEBhMCRlIx
DDAKBgNVBAgTA0lERjEOMAwGA1UEBxMFUGFyaXMxGTAXBgNVBAoTEEZha2UgQ0Eg
Zm9yIFRlc3QxEjAQBgNVBAMTCU5vZGVPUENVQTAeFw0xNTA3MDIxMjEyNTNaFw0x
NjA3MDExMjEyNTNaMDsxEjAQBgNVBAoTCU5vZGVPUENVQTElMCMGA1UEAxMcdXJu
OmVob21lMDk6Tm9kZU9QQ1VBLUNsaWVudDCBnzANBgkqhkiG9w0BAQEFAAOBjQAw
gYkCgYEAn1Ovlu9dTqujUuLgZZeZxOaSmHWVFTQpLvr6A5+ZBiq1DMG4p9b+DCps
F3rJNiLFJWirHu7/B2p5HJ6zJ2k8DrVJznkXO74VDUTkHQVbnpgI5NviE+O/d7WU
L4nyRRTDw5f9j9XPM3MsbAjFSE4LApYV/wbOsrk0wQL/81Ie4eECAwEAAaOCAV0w
ggFZMAwGA1UdEwEB/wQCMAAwHQYDVR0OBBYEFFUBfAcNMcTHgX2yT7F7khZmNCRd
MIGMBgNVHSMEgYQwgYGAFErEdJfaGBsy2/zKLH53XmfcpZFooV6kXDBaMQswCQYD
VQQGEwJGUjEMMAoGA1UECBMDSURGMQ4wDAYDVQQHEwVQYXJpczEZMBcGA1UEChMQ
RmFrZSBDQSBmb3IgVGVzdDESMBAGA1UEAxMJTm9kZU9QQ1VBggkA2+DR/WXBu0kw
OwYDVR0RBDQwMoYcdXJuOmVob21lMDk6Tm9kZU9QQ1VBLUNsaWVudIIJbG9jYWxo
b3N0ggdlaG9tZTA5MCwGCWCGSAGG+EIBDQQfFh1PcGVuU1NMIEdlbmVyYXRlZCBD
ZXJ0aWZpY2F0ZTAOBgNVHQ8BAf8EBAMCAvwwIAYDVR0lAQH/BBYwFAYIKwYBBQUH
AwEGCCsGAQUFBwMCMA0GCSqGSIb3DQEBBQUAA4IBAQAPks7DfFlS+UqMJ4DNvr+J
IFc9QUrXoXUHP+jyN2EOiJJ+fKHII7yH9gbFLLROsSH+RcykmTEPCJcAstjHUXVq
Uui9CIqwMUbGe0n/stxgBCN6wyd7pcH28oNiH7ODjF9nlDnFmLQ7lmpb5sQp9kOO
YmQMLrEwa/+YCWOWV0T0lq3a8M8bdWWQGhXQDZ6e3aA2CYfCdPQRmQMJchnKfTti
UO7eYZOsFUl6m34ZOb9/DYQfd/J0hrNn0s05UgonD+79KZ+KcGfldrGDbK/r+xYV
fdQTzOxSnmM6URjErMRtKz4p+e1y3ma1PeNCe8csXy3rNumrhpJXEXWWAXpAO8nZ
-----END CERTIFICATE-----
