Certificate:
    Data:
        Version: 3 (0x2)
        Serial Number: 4098 (0x1002)
    Signature Algorithm: sha1WithRSAEncryption
        Issuer: O=NodeOPCUA, CN=urn:ehome09:NodeOPCUA-Client
        Validity
            Not Before: Jul  2 12:12:53 2015 GMT
            Not After : Jul  1 12:12:53 2016 GMT
        Subject: O=NodeOPCUA, CN=urn:ehome09:NodeOPCUA-Client
        Subject Public Key Info:
            Public Key Algorithm: rsaEncryption
                Public-Key: (1024 bit)
                Modulus:
                    00:9f:53:af:96:ef:5d:4e:ab:a3:52:e2:e0:65:97:
                    99:c4:e6:92:98:75:95:15:34:29:2e:fa:fa:03:9f:
                    99:06:2a:b5:0c:c1:b8:a7:d6:fe:0c:2a:6c:17:7a:
                    c9:36:22:c5:25:68:ab:1e:ee:ff:07:6a:79:1c:9e:
                    b3:27:69:3c:0e:b5:49:ce:79:17:3b:be:15:0d:44:
                    e4:1d:05:5b:9e:98:08:e4:db:e2:13:e3:bf:77:b5:
                    94:2f:89:f2:45:14:c3:c3:97:fd:8f:d5:cf:33:73:
                    2c:6c:08:c5:48:4e:0b:02:96:15:ff:06:ce:b2:b9:
                    34:c1:02:ff:f3:52:1e:e1:e1
                Exponent: 65537 (0x10001)
        X509v3 extensions:
            X509v3 Basic Constraints: critical
                CA:FALSE
            X509v3 Subject Key Identifier: 
                55:01:7C:07:0D:31:C4:C7:81:7D:B2:4F:B1:7B:92:16:66:34:24:5D
            X509v3 Authority Key Identifier: 
                keyid:55:01:7C:07:0D:31:C4:C7:81:7D:B2:4F:B1:7B:92:16:66:34:24:5D
                DirName:/O=NodeOPCUA/CN=urn:ehome09:NodeOPCUA-Client
                serial:10:02

            X509v3 Subject Alternative Name: 
                URI:urn:ehome09:NodeOPCUA-Client, DNS:localhost, DNS:ehome09
            Netscape Comment: 
                OpenSSL Generated Certificate
            X509v3 Key Usage: critical
                Digital Signature, Non Repudiation, Key Encipherment, Data Encipherment, Key Agreement, Certificate Sign
            X509v3 Extended Key Usage: critical
                TLS Web Server Authentication, TLS Web Client Authentication
    Signature Algorithm: sha1WithRSAEncryption
         51:24:1a:cd:ed:43:cd:52:a9:aa:95:7f:d6:7c:f1:00:6d:e7:
         95:ad:f2:eb:4d:bc:26:f4:fe:88:d6:51:21:d1:b7:b2:88:67:
         fa:1b:6a:37:72:96:ed:15:3c:14:08:36:a1:c0:bc:ca:43:87:
         80:1e:17:d9:2c:dc:00:d6:35:23:8a:5f:2e:0b:32:ca:d7:a5:
         30:55:22:2b:d0:11:42:4f:9f:74:0b:ad:7e:38:5c:18:e9:4b:
         da:d7:af:65:b1:43:8d:8c:1a:97:13:9a:31:7d:32:f2:5d:f4:
         39:90:c7:f1:cc:06:aa:95:1f:53:0b:56:61:44:54:bb:ac:a8:
         ed:5c
-----BEGIN CERTIFICATE-----
MIIDIzCCAoygAwIBAgICEAIwDQYJKoZIhvcNAQEFBQAwOzESMBAGA1UEChMJTm9k
ZU9QQ1VBMSUwIwYDVQQDExx1cm46ZWhvbWUwOTpOb2RlT1BDVUEtQ2xpZW50MB4X
DTE1MDcwMjEyMTI1M1oXDTE2MDcwMTEyMTI1M1owOzESMBAGA1UEChMJTm9kZU9Q
Q1VBMSUwIwYDVQQDExx1cm46ZWhvbWUwOTpOb2RlT1BDVUEtQ2xpZW50MIGfMA0G
CSqGSIb3DQEBAQUAA4GNADCBiQKBgQCfU6+W711Oq6NS4uBll5nE5pKYdZUVNCku
+voDn5kGKrUMwbin1v4MKmwXesk2IsUlaKse7v8HankcnrMnaTwOtUnOeRc7vhUN
ROQdBVuemAjk2+IT4793tZQvifJFFMPDl/2P1c8zcyxsCMVITgsClhX/Bs6yuTTB
Av/zUh7h4QIDAQABo4IBNDCCATAwDAYDVR0TAQH/BAIwADAdBgNVHQ4EFgQUVQF8
Bw0xxMeBfbJPsXuSFmY0JF0wZAYDVR0jBF0wW4AUVQF8Bw0xxMeBfbJPsXuSFmY0
JF2hP6Q9MDsxEjAQBgNVBAoTCU5vZGVPUENVQTElMCMGA1UEAxMcdXJuOmVob21l
MDk6Tm9kZU9QQ1VBLUNsaWVudIICEAIwOwYDVR0RBDQwMoYcdXJuOmVob21lMDk6
Tm9kZU9QQ1VBLUNsaWVudIIJbG9jYWxob3N0ggdlaG9tZTA5MCwGCWCGSAGG+EIB
DQQfFh1PcGVuU1NMIEdlbmVyYXRlZCBDZXJ0aWZpY2F0ZTAOBgNVHQ8BAf8EBAMC
AvwwIAYDVR0lAQH/BBYwFAYIKwYBBQUHAwEGCCsGAQUFBwMCMA0GCSqGSIb3DQEB
BQUAA4GBAFEkGs3tQ81SqaqVf9Z88QBt55Wt8utNvCb0/ojWUSHRt7KIZ/obajdy
lu0VPBQINqHAvMpDh4AeF9ks3ADWNSOKXy4LMsrXpTBVIivQEUJPn3QLrX44XBjp
S9rXr2WxQ42MGpcTmjF9MvJd9DmQx/HMBqqVH1MLVmFEVLusqO1c
-----END CERTIFICATE-----
