Certificate:
    Data:
        Version: 3 (0x2)
        Serial Number: 4100 (0x1004)
    Signature Algorithm: sha1WithRSAEncryption
        Issuer: C=FR, ST=IDF, L=Paris, O=Fake CA for Test, CN=NodeOPCUA
        Validity
            Not Before: Jul  2 12:12:53 2015 GMT
            Not After : Jul  1 12:12:53 2016 GMT
        Subject: O=NodeOPCUA, CN=urn:ehome09:NodeOPCUA-Server
        Subject Public Key Info:
            Public Key Algorithm: rsaEncryption
                Public-Key: (1024 bit)
                Modulus:
                    00:b0:d5:c7:5a:ca:27:4e:13:d6:fc:7f:6a:ce:b4:
                    e0:ed:27:f1:df:86:b2:0d:80:78:17:28:d3:0f:1e:
                    24:66:cd:5b:36:b7:5e:23:f5:a1:a9:72:43:97:23:
                    c2:7d:42:47:82:a8:93:64:91:58:b7:e9:cd:a7:d3:
                    bf:ce:09:c6:26:73:b6:54:36:7b:3e:0b:21:5e:21:
                    f4:dd:6f:1e:c0:a5:e1:28:cb:bd:c3:08:33:37:b7:
                    43:3b:70:d2:f6:af:39:22:19:12:e7:45:20:b0:76:
                    af:8f:63:fd:b5:6e:79:d6:64:ff:7b:e9:a2:f3:0b:
                    62:2d:48:38:60:90:11:85:e9
                Exponent: 65537 (0x10001)
        X509v3 extensions:
            X509v3 Basic Constraints: critical
                CA:FALSE
            X509v3 Subject Key Identifier: 
                55:71:9B:48:08:F3:A1:1D:76:A0:AA:98:89:2A:32:99:93:E8:32:78
            X509v3 Authority Key Identifier: 
                keyid:4A:C4:74:97:DA:18:1B:32:DB:FC:CA:2C:7E:77:5E:67:DC:A5:91:68
                DirName:/C=FR/ST=IDF/L=Paris/O=Fake CA for Test/CN=NodeOPCUA
                serial:DB:E0:D1:FD:65:C1:BB:49

            X509v3 Subject Alternative Name: 
                URI:urn:ehome09:NodeOPCUA-Server, DNS:localhost, DNS:ehome09
            Netscape Comment: 
                OpenSSL Generated Certificate
            X509v3 Key Usage: critical
                Digital Signature, Non Repudiation, Key Encipherment, Data Encipherment, Key Agreement, Certificate Sign
            X509v3 Extended Key Usage: critical
                TLS Web Server Authentication, TLS Web Client Authentication
    Signature Algorithm: sha1WithRSAEncryption
         a7:96:64:1f:3c:9d:5b:08:95:d7:07:f9:16:47:f7:79:4f:4d:
         7f:35:24:9e:64:ae:38:7e:a3:0f:31:44:2d:f2:9a:84:93:c0:
         da:7c:3e:38:87:32:a9:61:ba:1b:c7:1e:06:eb:f3:4e:7c:9f:
         e8:67:44:1d:3e:1c:27:8b:e1:1b:be:eb:92:f8:5f:55:7b:aa:
         6e:91:9c:4d:77:54:c1:b2:39:94:f6:ae:ab:b9:f6:47:64:ba:
         00:6a:5b:18:d4:41:01:bc:2d:80:c5:ff:79:59:12:50:9a:28:
         0f:1a:0c:3d:50:f7:55:f6:ea:12:bb:97:3f:24:a7:90:02:ab:
         8c:f6:01:78:2f:a9:9f:bd:42:fb:e3:e6:a7:b2:3c:3c:eb:ec:
         24:d0:8e:fc:b0:40:2a:dd:ef:a0:49:83:4a:69:5c:71:fc:d3:
         d1:01:d1:9d:cb:d0:27:1c:84:9b:f0:cb:a0:3a:4b:eb:0c:f7:
         be:e4:80:33:8c:93:e2:7c:29:41:be:62:8b:fd:d5:d1:01:33:
         b8:e1:e6:35:72:6f:26:5e:e1:2b:bf:c0:55:c7:ce:ae:f2:93:
         f0:32:9b:00:a5:51:98:7b:a6:93:71:28:0f:f7:47:0a:9f:05:
         4b:40:44:4f:e1:98:71:8a:b2:04:ca:41:d6:58:e6:8f:04:b9:
         1c:34:04:d2
-----BEGIN CERTIFICATE-----
MIID7DCCAtSgAwIBAgICEAQwDQYJKoZIhvcNAQEFBQAwWjELMAkGA1UEBhMCRlIx
DDAKBgNVBAgTA0lERjEOMAwGA1UEBxMFUGFyaXMxGTAXBgNVBAoTEEZha2UgQ0Eg
Zm9yIFRlc3QxEjAQBgNVBAMTCU5vZGVPUENVQTAeFw0xNTA3MDIxMjEyNTNaFw0x
NjA3MDExMjEyNTNaMDsxEjAQBgNVBAoTCU5vZGVPUENVQTElMCMGA1UEAxMcdXJu
OmVob21lMDk6Tm9kZU9QQ1VBLVNlcnZlcjCBnzANBgkqhkiG9w0BAQEFAAOBjQAw
gYkCgYEAsNXHWsonThPW/H9qzrTg7Sfx34ayDYB4FyjTDx4kZs1bNrdeI/WhqXJD
lyPCfUJHgqiTZJFYt+nNp9O/zgnGJnO2VDZ7PgshXiH03W8ewKXhKMu9wwgzN7dD
O3DS9q85IhkS50UgsHavj2P9tW551mT/e+mi8wtiLUg4YJARhekCAwEAAaOCAV0w
ggFZMAwGA1UdEwEB/wQCMAAwHQYDVR0OBBYEFFVxm0gI86EddqCqmIkqMpmT6DJ4
MIGMBgNVHSMEgYQwgYGAFErEdJfaGBsy2/zKLH53XmfcpZFooV6kXDBaMQswCQYD
VQQGEwJGUjEMMAoGA1UECBMDSURGMQ4wDAYDVQQHEwVQYXJpczEZMBcGA1UEChMQ
RmFrZSBDQSBmb3IgVGVzdDESMBAGA1UEAxMJTm9kZU9QQ1VBggkA2+DR/WXBu0kw
OwYDVR0RBDQwMoYcdXJuOmVob21lMDk6Tm9kZU9QQ1VBLVNlcnZlcoIJbG9jYWxo
b3N0ggdlaG9tZTA5MCwGCWCGSAGG+EIBDQQfFh1PcGVuU1NMIEdlbmVyYXRlZCBD
ZXJ0aWZpY2F0ZTAOBgNVHQ8BAf8EBAMCAvwwIAYDVR0lAQH/BBYwFAYIKwYBBQUH
AwEGCCsGAQUFBwMCMA0GCSqGSIb3DQEBBQUAA4IBAQCnlmQfPJ1bCJXXB/kWR/d5
T01/NSSeZK44fqMPMUQt8pqEk8DafD44hzKpYbobxx4G6/NOfJ/oZ0QdPhwni+Eb
vuuS+F9Ve6pukZxNd1TBsjmU9q6rufZHZLoAalsY1EEBvC2Axf95WRJQmigPGgw9
UPdV9uoSu5c/JKeQAquM9gF4L6mfvUL74+ansjw86+wk0I78sEAq3e+gSYNKaVxx
/NPRAdGdy9AnHISb8MugOkvrDPe+5IAzjJPifClBvmKL/dXRATO44eY1cm8mXuEr
v8BVx86u8pPwMpsApVGYe6aTcSgP90cKnwVLQERP4ZhxirIEykHWWOaPBLkcNATS
-----END CERTIFICATE-----
