Certificate:
    Data:
        Version: 3 (0x2)
        Serial Number: 4101 (0x1005)
    Signature Algorithm: sha1WithRSAEncryption
        Issuer: C=FR, ST=IDF, L=Paris, O=Fake CA for Test, CN=NodeOPCUA
        Validity
            Not Before: Jul  2 12:12:53 2015 GMT
            Not After : Jul  1 12:12:53 2016 GMT
        Subject: O=NodeOPCUA, CN=urn:ehome09:NodeOPCUA-Server
        Subject Public Key Info:
            Public Key Algorithm: rsaEncryption
                Public-Key: (2048 bit)
                Modulus:
                    00:9f:c4:ee:b3:73:a4:16:31:47:2c:69:66:2b:74:
                    5d:9c:e7:39:49:54:d1:f5:f0:ed:d4:b6:e1:52:7f:
                    1d:ad:5f:ee:dd:7e:d7:c4:7d:6b:14:aa:ff:e2:7d:
                    20:36:e2:ef:57:91:7d:d3:da:a6:3e:b1:74:ce:14:
                    57:14:5a:2e:61:c8:32:93:fc:c3:3b:a6:e4:ff:cd:
                    83:b7:e2:4c:7d:65:96:d4:3e:e0:f5:14:b2:3c:12:
                    2e:02:4c:df:87:88:64:64:4a:2b:1a:f2:06:20:16:
                    64:d5:28:2e:77:81:12:80:4e:06:51:20:68:5f:73:
                    55:1c:6f:3f:5e:a2:2b:5c:aa:69:ca:96:7f:62:b9:
                    32:f6:29:7a:44:df:54:30:6f:12:d7:b2:f8:33:ab:
                    03:25:d5:69:dc:0a:c6:ff:1f:0f:02:55:95:b9:c2:
                    a0:40:ac:4d:a6:ec:f8:d5:cc:d6:57:14:eb:d9:c3:
                    76:18:35:89:10:f2:c1:ad:85:8a:ba:93:0b:2c:e0:
                    34:c7:47:ba:31:70:12:6e:6e:7a:ae:fd:f9:e2:6c:
                    e8:57:2c:d5:95:f2:de:da:39:6b:e3:0d:af:02:9a:
                    bb:cb:1c:50:dc:32:59:dc:b4:e3:8a:19:da:af:9b:
                    b6:6a:7b:cb:5b:13:46:b6:42:e9:38:e4:bd:59:f0:
                    42:d1
                Exponent: 65537 (0x10001)
        X509v3 extensions:
            X509v3 Basic Constraints: critical
                CA:FALSE
            X509v3 Subject Key Identifier: 
                C7:FC:58:39:0D:00:0E:8F:25:4E:CA:7E:37:FE:ED:65:DF:D2:59:5E
            X509v3 Authority Key Identifier: 
                keyid:4A:C4:74:97:DA:18:1B:32:DB:FC:CA:2C:7E:77:5E:67:DC:A5:91:68
                DirName:/C=FR/ST=IDF/L=Paris/O=Fake CA for Test/CN=NodeOPCUA
                serial:DB:E0:D1:FD:65:C1:BB:49

            X509v3 Subject Alternative Name: 
                URI:urn:ehome09:NodeOPCUA-Server, DNS:localhost, DNS:ehome09
            Netscape Comment: 
                OpenSSL Generated Certificate
            X509v3 Key Usage: critical
                Digital Signature, Non Repudiation, Key Encipherment, Data Encipherment, Key Agreement, Certificate Sign
            X509v3 Extended Key Usage: critical
                TLS Web Server Authentication, TLS Web Client Authentication
    Signature Algorithm: sha1WithRSAEncryption
         7f:6a:56:95:b4:c2:c7:0d:2e:7c:f2:9f:1c:cd:56:62:40:42:
         9d:20:d2:bd:c1:33:5a:75:40:c4:22:27:13:08:19:98:15:f4:
         b0:f6:58:3c:c1:0c:6e:69:45:12:6e:45:0f:0e:c0:e6:2b:62:
         05:a2:fa:1a:d6:af:56:63:82:32:da:00:33:93:e4:3f:0a:50:
         ae:4b:e0:c3:3a:08:d7:1e:8e:33:5b:ea:bd:37:1b:14:75:5e:
         cd:be:ca:a1:94:85:07:04:68:dc:56:16:aa:c2:79:92:a0:24:
         6a:42:0a:7e:0d:dd:b7:9e:54:23:a3:f1:76:d6:87:74:9d:93:
         f8:74:da:43:a7:5e:64:c1:8f:99:49:fd:7c:7b:b0:09:ac:67:
         35:19:fb:e1:ea:3e:5f:c1:c6:a0:70:3b:04:10:ce:c9:1b:09:
         fe:d7:48:13:db:02:5a:6f:f7:0a:bf:fb:70:e4:83:34:04:0a:
         76:a3:56:f1:fd:e0:43:76:0c:51:4d:79:0c:13:55:c3:1e:ee:
         f1:28:8c:32:55:9e:88:aa:b6:31:d7:e0:81:36:ec:47:35:52:
         6a:d0:44:7d:fa:66:fe:8f:23:d3:d5:aa:22:0a:63:67:ac:fd:
         ec:94:1e:0f:ec:b3:e8:3e:b1:48:7c:82:69:5c:1d:11:2d:d3:
         76:75:d2:ed
-----BEGIN CERTIFICATE-----
MIIEcDCCA1igAwIBAgICEAUwDQYJKoZIhvcNAQEFBQAwWjELMAkGA1UEBhMCRlIx
DDAKBgNVBAgTA0lERjEOMAwGA1UEBxMFUGFyaXMxGTAXBgNVBAoTEEZha2UgQ0Eg
Zm9yIFRlc3QxEjAQBgNVBAMTCU5vZGVPUENVQTAeFw0xNTA3MDIxMjEyNTNaFw0x
NjA3MDExMjEyNTNaMDsxEjAQBgNVBAoTCU5vZGVPUENVQTElMCMGA1UEAxMcdXJu
OmVob21lMDk6Tm9kZU9QQ1VBLVNlcnZlcjCCASIwDQYJKoZIhvcNAQEBBQADggEP
ADCCAQoCggEBAJ/E7rNzpBYxRyxpZit0XZznOUlU0fXw7dS24VJ/Ha1f7t1+18R9
axSq/+J9IDbi71eRfdPapj6xdM4UVxRaLmHIMpP8wzum5P/Ng7fiTH1lltQ+4PUU
sjwSLgJM34eIZGRKKxryBiAWZNUoLneBEoBOBlEgaF9zVRxvP16iK1yqacqWf2K5
MvYpekTfVDBvEtey+DOrAyXVadwKxv8fDwJVlbnCoECsTabs+NXM1lcU69nDdhg1
iRDywa2FirqTCyzgNMdHujFwEm5ueq79+eJs6Fcs1ZXy3to5a+MNrwKau8scUNwy
Wdy044oZ2q+btmp7y1sTRrZC6TjkvVnwQtECAwEAAaOCAV0wggFZMAwGA1UdEwEB
/wQCMAAwHQYDVR0OBBYEFMf8WDkNAA6PJU7Kfjf+7WXf0lleMIGMBgNVHSMEgYQw
gYGAFErEdJfaGBsy2/zKLH53XmfcpZFooV6kXDBaMQswCQYDVQQGEwJGUjEMMAoG
A1UECBMDSURGMQ4wDAYDVQQHEwVQYXJpczEZMBcGA1UEChMQRmFrZSBDQSBmb3Ig
VGVzdDESMBAGA1UEAxMJTm9kZU9QQ1VBggkA2+DR/WXBu0kwOwYDVR0RBDQwMoYc
dXJuOmVob21lMDk6Tm9kZU9QQ1VBLVNlcnZlcoIJbG9jYWxob3N0ggdlaG9tZTA5
MCwGCWCGSAGG+EIBDQQfFh1PcGVuU1NMIEdlbmVyYXRlZCBDZXJ0aWZpY2F0ZTAO
BgNVHQ8BAf8EBAMCAvwwIAYDVR0lAQH/BBYwFAYIKwYBBQUHAwEGCCsGAQUFBwMC
MA0GCSqGSIb3DQEBBQUAA4IBAQB/alaVtMLHDS588p8czVZiQEKdINK9wTNadUDE
IicTCBmYFfSw9lg8wQxuaUUSbkUPDsDmK2IFovoa1q9WY4Iy2gAzk+Q/ClCuS+DD
OgjXHo4zW+q9NxsUdV7NvsqhlIUHBGjcVhaqwnmSoCRqQgp+Dd23nlQjo/F21od0
nZP4dNpDp15kwY+ZSf18e7AJrGc1Gfvh6j5fwcagcDsEEM7JGwn+10gT2wJab/cK
v/tw5IM0BAp2o1bx/eBDdgxRTXkME1XDHu7xKIwyVZ6IqrYx1+CBNuxHNVJq0ER9
+mb+jyPT1aoiCmNnrP3slB4P7LPoPrFIfIJpXB0RLdN2ddLt
-----END CERTIFICATE-----
