Certificate:
    Data:
        Version: 3 (0x2)
        Serial Number: 4103 (0x1007)
    Signature Algorithm: sha1WithRSAEncryption
        Issuer: O=NodeOPCUA, CN=urn:ehome09:NodeOPCUA-Server
        Validity
            Not Before: Jul  2 12:12:53 2015 GMT
            Not After : Jul  1 12:12:53 2016 GMT
        Subject: O=NodeOPCUA, CN=urn:ehome09:NodeOPCUA-Server
        Subject Public Key Info:
            Public Key Algorithm: rsaEncryption
                Public-Key: (2048 bit)
                Modulus:
                    00:9f:c4:ee:b3:73:a4:16:31:47:2c:69:66:2b:74:
                    5d:9c:e7:39:49:54:d1:f5:f0:ed:d4:b6:e1:52:7f:
                    1d:ad:5f:ee:dd:7e:d7:c4:7d:6b:14:aa:ff:e2:7d:
                    20:36:e2:ef:57:91:7d:d3:da:a6:3e:b1:74:ce:14:
                    57:14:5a:2e:61:c8:32:93:fc:c3:3b:a6:e4:ff:cd:
                    83:b7:e2:4c:7d:65:96:d4:3e:e0:f5:14:b2:3c:12:
                    2e:02:4c:df:87:88:64:64:4a:2b:1a:f2:06:20:16:
                    64:d5:28:2e:77:81:12:80:4e:06:51:20:68:5f:73:
                    55:1c:6f:3f:5e:a2:2b:5c:aa:69:ca:96:7f:62:b9:
                    32:f6:29:7a:44:df:54:30:6f:12:d7:b2:f8:33:ab:
                    03:25:d5:69:dc:0a:c6:ff:1f:0f:02:55:95:b9:c2:
                    a0:40:ac:4d:a6:ec:f8:d5:cc:d6:57:14:eb:d9:c3:
                    76:18:35:89:10:f2:c1:ad:85:8a:ba:93:0b:2c:e0:
                    34:c7:47:ba:31:70:12:6e:6e:7a:ae:fd:f9:e2:6c:
                    e8:57:2c:d5:95:f2:de:da:39:6b:e3:0d:af:02:9a:
                    bb:cb:1c:50:dc:32:59:dc:b4:e3:8a:19:da:af:9b:
                    b6:6a:7b:cb:5b:13:46:b6:42:e9:38:e4:bd:59:f0:
                    42:d1
                Exponent: 65537 (0x10001)
        X509v3 extensions:
            X509v3 Basic Constraints: critical
                CA:FALSE
            X509v3 Subject Key Identifier: 
                C7:FC:58:39:0D:00:0E:8F:25:4E:CA:7E:37:FE:ED:65:DF:D2:59:5E
            X509v3 Authority Key Identifier: 
                keyid:C7:FC:58:39:0D:00:0E:8F:25:4E:CA:7E:37:FE:ED:65:DF:D2:59:5E
                DirName:/O=NodeOPCUA/CN=urn:ehome09:NodeOPCUA-Server
                serial:10:07

            X509v3 Subject Alternative Name: 
                URI:urn:ehome09:NodeOPCUA-Server, DNS:localhost, DNS:ehome09
            Netscape Comment: 
                OpenSSL Generated Certificate
            X509v3 Key Usage: critical
                Digital Signature, Non Repudiation, Key Encipherment, Data Encipherment, Key Agreement, Certificate Sign
            X509v3 Extended Key Usage: critical
                TLS Web Server Authentication, TLS Web Client Authentication
    Signature Algorithm: sha1WithRSAEncryption
         87:86:f7:10:98:71:25:21:6b:79:d5:50:f2:ec:ee:cb:53:3a:
         31:db:cf:2e:53:4f:d8:a8:56:6f:61:6c:47:64:3d:1f:da:36:
         da:cf:28:17:f2:05:fd:95:6e:86:36:6a:f1:c3:05:b8:bb:8e:
         5e:17:19:6f:8b:66:d6:08:59:3c:d1:01:e0:ae:c5:fa:ae:45:
         4d:7b:5f:fb:23:f6:72:37:a0:02:7f:2a:ae:a3:e3:ae:74:b3:
         b9:cb:61:9c:fa:09:2b:9e:c7:bf:af:b8:e1:3e:0f:a5:84:92:
         80:33:bd:1f:71:b0:5d:67:f5:42:cd:92:d5:91:00:86:6b:44:
         f6:a0:eb:99:0e:8d:64:29:f8:07:c7:28:9e:f4:b3:01:26:e6:
         ae:e1:03:db:1f:0a:06:0d:1c:da:6a:17:78:5a:a0:38:c5:0f:
         ba:bc:56:5b:88:d3:b9:10:cb:74:58:1f:de:6d:7f:8b:39:79:
         15:a8:71:8d:5f:ef:d8:be:15:c2:79:ee:df:ce:bd:27:22:89:
         8d:0c:8c:4c:cd:b6:75:98:91:c8:8b:00:cf:80:e1:8c:08:72:
         e3:3b:6c:e1:ad:29:ac:32:e5:41:f0:82:dc:7b:cb:85:c7:30:
         43:9b:13:a8:27:5d:c3:cc:49:f5:b7:a1:38:c6:46:c7:22:1e:
         5c:a4:de:4a
-----BEGIN CERTIFICATE-----
MIIEKDCCAxCgAwIBAgICEAcwDQYJKoZIhvcNAQEFBQAwOzESMBAGA1UEChMJTm9k
ZU9QQ1VBMSUwIwYDVQQDExx1cm46ZWhvbWUwOTpOb2RlT1BDVUEtU2VydmVyMB4X
DTE1MDcwMjEyMTI1M1oXDTE2MDcwMTEyMTI1M1owOzESMBAGA1UEChMJTm9kZU9Q
Q1VBMSUwIwYDVQQDExx1cm46ZWhvbWUwOTpOb2RlT1BDVUEtU2VydmVyMIIBIjAN
BgkqhkiG9w0BAQEFAAOCAQ8AMIIBCgKCAQEAn8Tus3OkFjFHLGlmK3RdnOc5SVTR
9fDt1LbhUn8drV/u3X7XxH1rFKr/4n0gNuLvV5F909qmPrF0zhRXFFouYcgyk/zD
O6bk/82Dt+JMfWWW1D7g9RSyPBIuAkzfh4hkZEorGvIGIBZk1Sgud4ESgE4GUSBo
X3NVHG8/XqIrXKppypZ/Yrky9il6RN9UMG8S17L4M6sDJdVp3ArG/x8PAlWVucKg
QKxNpuz41czWVxTr2cN2GDWJEPLBrYWKupMLLOA0x0e6MXASbm56rv354mzoVyzV
lfLe2jlr4w2vApq7yxxQ3DJZ3LTjihnar5u2anvLWxNGtkLpOOS9WfBC0QIDAQAB
o4IBNDCCATAwDAYDVR0TAQH/BAIwADAdBgNVHQ4EFgQUx/xYOQ0ADo8lTsp+N/7t
Zd/SWV4wZAYDVR0jBF0wW4AUx/xYOQ0ADo8lTsp+N/7tZd/SWV6hP6Q9MDsxEjAQ
BgNVBAoTCU5vZGVPUENVQTElMCMGA1UEAxMcdXJuOmVob21lMDk6Tm9kZU9QQ1VB
LVNlcnZlcoICEAcwOwYDVR0RBDQwMoYcdXJuOmVob21lMDk6Tm9kZU9QQ1VBLVNl
cnZlcoIJbG9jYWxob3N0ggdlaG9tZTA5MCwGCWCGSAGG+EIBDQQfFh1PcGVuU1NM
IEdlbmVyYXRlZCBDZXJ0aWZpY2F0ZTAOBgNVHQ8BAf8EBAMCAvwwIAYDVR0lAQH/
BBYwFAYIKwYBBQUHAwEGCCsGAQUFBwMCMA0GCSqGSIb3DQEBBQUAA4IBAQCHhvcQ
mHElIWt51VDy7O7LUzox288uU0/YqFZvYWxHZD0f2jbazygX8gX9lW6GNmrxwwW4
u45eFxlvi2bWCFk80QHgrsX6rkVNe1/7I/ZyN6ACfyquo+OudLO5y2Gc+gkrnse/
r7jhPg+lhJKAM70fcbBdZ/VCzZLVkQCGa0T2oOuZDo1kKfgHxyie9LMBJuau4QPb
HwoGDRzaahd4WqA4xQ+6vFZbiNO5EMt0WB/ebX+LOXkVqHGNX+/YvhXCee7fzr0n
IomNDIxMzbZ1mJHIiwDPgOGMCHLjO2zhrSmsMuVB8ILce8uFxzBDmxOoJ13DzEn1
t6E4xkbHIh5cpN5K
-----END CERTIFICATE-----
